Certificate:
    Data:
        Version: 3 (0x2)
        Serial Number: 44461 (0xadad)
    Signature Algorithm: ecdsa-with-SHA256
        Issuer: C=FR, ST=Ile de France, L=Magny les Hameaux, O=AWS Team, CN=Pascal Obry/emailAddress=aws@obry.net
        Validity
            Not Before: Mar 22 11:16:50 2019 GMT
            Not After : Apr  1 11:16:50 2019 GMT
        Subject: C=FR, ST=Ile de France, O=AWS Team, CN=Jean Dupont/emailAddress=jean.dupont@nowhere.com
        Subject Public Key Info:
            Public Key Algorithm: id-ecPublicKey
                Public-Key: (256 bit)
                pub:
                    04:0b:f4:cc:08:f1:44:9e:fd:e6:be:90:e7:6b:85:
                    b0:d6:eb:c6:8b:04:77:6d:ff:22:3c:86:2b:24:96:
                    2b:4d:ee:62:7c:53:c8:91:9f:a7:19:5a:a3:b7:75:
                    fd:ec:9a:44:38:96:67:fc:fe:2b:bf:9b:8e:1e:83:
                    c6:bd:d6:96:7b
                ASN1 OID: prime256v1
                NIST CURVE: P-256
        X509v3 extensions:
            X509v3 Basic Constraints: 
                CA:FALSE
            Netscape Comment: 
                OpenSSL Generated Certificate
            X509v3 Subject Key Identifier: 
                EB:B5:55:3C:D3:1E:A0:66:32:E5:8D:AC:32:42:0D:64:82:C9:59:26
            X509v3 Authority Key Identifier: 
                DirName:/C=FR/ST=Ile de France/L=Magny les Hameaux/O=AWS Team/CN=Pascal Obry/emailAddress=aws@obry.net
                serial:EC:7C:32:D4:40:EA:E1:BA

    Signature Algorithm: ecdsa-with-SHA256
         30:46:02:21:00:ab:96:f2:44:0c:2d:b7:62:7a:30:ef:29:3b:
         58:ad:7a:1c:26:b1:c6:8c:97:a4:c8:44:49:de:cf:a7:7f:19:
         94:02:21:00:d0:c4:7c:39:de:79:46:22:36:7b:86:4d:78:30:
         5e:cc:c0:b2:82:fb:21:f9:09:3f:bc:2b:6e:e0:9c:4b:e4:a4
-----BEGIN CERTIFICATE-----
MIIC9zCCApygAwIBAgIDAK2tMAoGCCqGSM49BAMCMIGHMQswCQYDVQQGEwJGUjEW
MBQGA1UECAwNSWxlIGRlIEZyYW5jZTEaMBgGA1UEBwwRTWFnbnkgbGVzIEhhbWVh
dXgxETAPBgNVBAoMCEFXUyBUZWFtMRQwEgYDVQQDDAtQYXNjYWwgT2JyeTEbMBkG
CSqGSIb3DQEJARYMYXdzQG9icnkubmV0MB4XDTE5MDMyMjExMTY1MFoXDTE5MDQw
MTExMTY1MFowdjELMAkGA1UEBhMCRlIxFjAUBgNVBAgMDUlsZSBkZSBGcmFuY2Ux
ETAPBgNVBAoMCEFXUyBUZWFtMRQwEgYDVQQDDAtKZWFuIER1cG9udDEmMCQGCSqG
SIb3DQEJARYXamVhbi5kdXBvbnRAbm93aGVyZS5jb20wWTATBgcqhkjOPQIBBggq
hkjOPQMBBwNCAAQL9MwI8USe/ea+kOdrhbDW68aLBHdt/yI8hisklitN7mJ8U8iR
n6cZWqO3df3smkQ4lmf8/iu/m44eg8a91pZ7o4IBBTCCAQEwCQYDVR0TBAIwADAs
BglghkgBhvhCAQ0EHxYdT3BlblNTTCBHZW5lcmF0ZWQgQ2VydGlmaWNhdGUwHQYD
VR0OBBYEFOu1VTzTHqBmMuWNrDJCDWSCyVkmMIGmBgNVHSMEgZ4wgZuhgY2kgYow
gYcxCzAJBgNVBAYTAkZSMRYwFAYDVQQIDA1JbGUgZGUgRnJhbmNlMRowGAYDVQQH
DBFNYWdueSBsZXMgSGFtZWF1eDERMA8GA1UECgwIQVdTIFRlYW0xFDASBgNVBAMM
C1Bhc2NhbCBPYnJ5MRswGQYJKoZIhvcNAQkBFgxhd3NAb2JyeS5uZXSCCQDsfDLU
QOrhujAKBggqhkjOPQQDAgNJADBGAiEAq5byRAwtt2J6MO8pO1itehwmscaMl6TI
REnez6d/GZQCIQDQxHw53nlGIjZ7hk14MF7MwLKC+yH5CT+8K27gnEvkpA==
-----END CERTIFICATE-----
-----BEGIN PRIVATE KEY-----
MIGHAgEAMBMGByqGSM49AgEGCCqGSM49AwEHBG0wawIBAQQg0oF1uuTinWEHtazB
UJblF3rE3+FCe+dXKiEcpHqcUyWhRANCAAQL9MwI8USe/ea+kOdrhbDW68aLBHdt
/yI8hisklitN7mJ8U8iRn6cZWqO3df3smkQ4lmf8/iu/m44eg8a91pZ7
-----END PRIVATE KEY-----
