-----BEGIN RSA PRIVATE KEY-----
MIICXQIBAAKBgQDIJDilLqfJOAa5Oagd/Kc/Gmq4heJG4FjikmWx7pHSIQnJyVpx
EjPQ9B5p22nxaE5PJQmUCNefucq94F99Bf1fsp0rvNbbhhRQNWkm29/4K4SSfsEN
HWTqB8uD+a6m6FVXfWCNnnBHqt2Ye15CkkcqtFNpgynOWzBpMA/jhGC0+QIDAQAB
AoGBAKc2K+VFv4TLvEJQO3ciORDtnzAfG1ef5GMXcMNh0I7Ab48ZHOjPDl+LNUW3
vSGlxZc2GHSHlq6p6QsORHkN4grxFzzoNpCdt6cIbAOBlAItrWaGHgM5YOhzXlcX
mgsT+G1CGd+MKJ/CioiYuKxHQNmvpGqkEh65k7kUuJYj2VFpAkEA8OUqGoyPbO1K
4a+3+uWWySwFwWgal3dg0wQwLnOFBkLQCcmKQxccoumbQcryKPDwzE0F61rx8mjV
S6YbQf/PRwJBANSw4YjqEChWSULXT0PpukG491LY7VOvTnGX4O1w0BJmdQl/nAKn
ceo3PrZ9BrU5O+VScrOpLrLiLZAnVwlP+b8CQG2e6yT/t7jK1tuSufc7iP1swgW8
GPW6Rl5gNoi82tj5iHAbvYZAOzDLe3JaJw6IbhuaJUpvrVAxcnalVRwYi7sCQQDA
Wi++aSCvukmLX7naC5ldMvDKRlFsa5Ef/mF3m50x5uNV8cigRdsqHUhkNfJJFzfq
D4SYoxsOwKrAQjPewit1AkBUMtxS0dd7Wfq80oGq5PANIm+ElWKYPyzWmhC1mpEb
3RjtaxmkY/C9W0mb/dBljC1DA6eVY2uH7vKBY0n2MLSR
-----END RSA PRIVATE KEY-----
Certificate:
    Data:
        Version: 3 (0x2)
        Serial Number: 43980 (0xabcc)
    Signature Algorithm: sha1WithRSAEncryption
        Issuer: C=FR, ST=Ile de France, L=Magny les Hameaux, O=AWS Team, CN=Pascal Obry/emailAddress=aws@obry.net
        Validity
            Not Before: Dec 12 08:10:10 2011
            Not After : Dec 12 08:10:10 2012
        Subject: C=FR, ST=Ile de France, O=AWS Team, CN=Jean Dupont/emailAddress=jean.dupont@nowhere.com
        Subject Public Key Info:
            Public Key Algorithm: rsaEncryption
                Public-Key: (1024 bit)
                Modulus:
                    00:c8:24:38:a5:2e:a7:c9:38:06:b9:39:a8:1d:fc:
                    a7:3f:1a:6a:b8:85:e2:46:e0:58:e2:92:65:b1:ee:
                    91:d2:21:09:c9:c9:5a:71:12:33:d0:f4:1e:69:db:
                    69:f1:68:4e:4f:25:09:94:08:d7:9f:b9:ca:bd:e0:
                    5f:7d:05:fd:5f:b2:9d:2b:bc:d6:db:86:14:50:35:
                    69:26:db:df:f8:2b:84:92:7e:c1:0d:1d:64:ea:07:
                    cb:83:f9:ae:a6:e8:55:57:7d:60:8d:9e:70:47:aa:
                    dd:98:7b:5e:42:92:47:2a:b4:53:69:83:29:ce:5b:
                    30:69:30:0f:e3:84:60:b4:f9
                Exponent: 65537 (0x10001)
        X509v3 extensions:
            X509v3 Basic Constraints: 
                CA:FALSE
            Netscape Comment: 
                OpenSSL Generated Certificate
            X509v3 Subject Key Identifier: 
                B2:A0:1B:27:23:90:6F:28:F4:50:E1:EB:63:6A:4D:EF:F5:11:F5:E7
            X509v3 Authority Key Identifier: 
                DirName:/C=FR/ST=Ile de France/L=Magny les Hameaux/O=AWS Team/CN=Pascal Obry/emailAddress=aws@obry.net
                serial:B1:1E:DF:C9:21:5D:7D:F2

    Signature Algorithm: sha1WithRSAEncryption
         97:14:6b:db:9e:d4:14:80:4f:71:06:a7:ce:cc:69:18:68:50:
         44:d6:98:8c:70:9b:76:07:8b:aa:43:e0:a4:78:b9:0a:00:be:
         2f:7c:04:93:cb:8b:2e:eb:ce:63:25:0d:aa:97:a7:2d:b1:9b:
         1f:8d:77:f1:7a:bf:d2:f4:9d:78:25:2b:06:15:30:2d:9c:b9:
         73:68:77:65:f5:98:39:00:96:d4:50:ce:ed:31:92:47:b5:30:
         73:7e:35:a2:25:85:08:3c:3b:1c:db:15:46:ee:54:cb:40:b3:
         3e:be:9b:2c:38:5b:fc:74:a5:26:e2:2d:65:be:6b:c4:20:b0:
         0c:e8
-----BEGIN CERTIFICATE-----
MIIDezCCAuSgAwIBAgIDAKvMMA0GCSqGSIb3DQEBBQUAMIGHMQswCQYDVQQGEwJG
UjEWMBQGA1UECAwNSWxlIGRlIEZyYW5jZTEaMBgGA1UEBwwRTWFnbnkgbGVzIEhh
bWVhdXgxETAPBgNVBAoMCEFXUyBUZWFtMRQwEgYDVQQDDAtQYXNjYWwgT2JyeTEb
MBkGCSqGSIb3DQEJARYMYXdzQG9icnkubmV0MBwXDDExMTIxMjA4MTAxMBcMMTIx
MjEyMDgxMDEwMHYxCzAJBgNVBAYTAkZSMRYwFAYDVQQIDA1JbGUgZGUgRnJhbmNl
MREwDwYDVQQKDAhBV1MgVGVhbTEUMBIGA1UEAwwLSmVhbiBEdXBvbnQxJjAkBgkq
hkiG9w0BCQEWF2plYW4uZHVwb250QG5vd2hlcmUuY29tMIGfMA0GCSqGSIb3DQEB
AQUAA4GNADCBiQKBgQDIJDilLqfJOAa5Oagd/Kc/Gmq4heJG4FjikmWx7pHSIQnJ
yVpxEjPQ9B5p22nxaE5PJQmUCNefucq94F99Bf1fsp0rvNbbhhRQNWkm29/4K4SS
fsENHWTqB8uD+a6m6FVXfWCNnnBHqt2Ye15CkkcqtFNpgynOWzBpMA/jhGC0+QID
AQABo4IBBTCCAQEwCQYDVR0TBAIwADAsBglghkgBhvhCAQ0EHxYdT3BlblNTTCBH
ZW5lcmF0ZWQgQ2VydGlmaWNhdGUwHQYDVR0OBBYEFLKgGycjkG8o9FDh62NqTe/1
EfXnMIGmBgNVHSMEgZ4wgZuhgY2kgYowgYcxCzAJBgNVBAYTAkZSMRYwFAYDVQQI
DA1JbGUgZGUgRnJhbmNlMRowGAYDVQQHDBFNYWdueSBsZXMgSGFtZWF1eDERMA8G
A1UECgwIQVdTIFRlYW0xFDASBgNVBAMMC1Bhc2NhbCBPYnJ5MRswGQYJKoZIhvcN
AQkBFgxhd3NAb2JyeS5uZXSCCQCxHt/JIV198jANBgkqhkiG9w0BAQUFAAOBgQCX
FGvbntQUgE9xBqfOzGkYaFBE1piMcJt2B4uqQ+CkeLkKAL4vfASTy4su685jJQ2q
l6ctsZsfjXfxer/S9J14JSsGFTAtnLlzaHdl9Zg5AJbUUM7tMZJHtTBzfjWiJYUI
PDsc2xVG7lTLQLM+vpssOFv8dKUm4i1lvmvEILAM6A==
-----END CERTIFICATE-----
