Certificate:
    Data:
        Version: 3 (0x2)
        Serial Number: 44462 (0xadae)
        Signature Algorithm: ecdsa-with-SHA256
        Issuer: C=FR, ST=Ile de France, L=Magny les Hameaux, O=AWS Team, CN=Pascal Obry/emailAddress=aws@obry.net
        Validity
            Not Before: Oct 28 03:39:23 2020 GMT
            Not After : Oct 27 03:39:23 2024 GMT
        Subject: C=FR, ST=Ile de France, O=AWS Team, CN=Jean Dupont/emailAddress=jean.dupont@nowhere.com
        Subject Public Key Info:
            Public Key Algorithm: id-ecPublicKey
                Public-Key: (256 bit)
                pub:
                    04:56:fa:85:49:04:9f:50:d4:59:69:b6:e8:8d:e0:
                    1d:e2:08:7b:f2:c7:be:4c:a1:82:af:99:5a:69:c4:
                    a5:5b:1f:3f:25:3c:38:a6:c0:c3:b2:ea:fa:38:b9:
                    1d:52:af:29:7d:25:0d:df:1d:44:07:8e:43:33:f6:
                    98:98:44:8a:b6
                ASN1 OID: prime256v1
                NIST CURVE: P-256
        X509v3 extensions:
            X509v3 Basic Constraints: 
                CA:FALSE
            Netscape Comment: 
                OpenSSL Generated Certificate
            X509v3 Subject Key Identifier: 
                BF:E4:BB:7E:C8:2A:E6:00:6A:01:BD:2B:E9:FA:F8:7E:CC:90:FC:49
            X509v3 Authority Key Identifier: 
                DirName:/C=FR/ST=Ile de France/L=Magny les Hameaux/O=AWS Team/CN=Pascal Obry/emailAddress=aws@obry.net
                serial:5E:9D:6F:07:C9:67:AC:A6:2C:F3:81:DC:98:61:E7:0F:8E:56:37:61

    Signature Algorithm: ecdsa-with-SHA256
         30:45:02:20:2d:00:3c:46:ee:a7:ab:3c:a5:fe:18:a7:11:5f:
         33:ca:84:ea:38:fe:ed:40:64:67:ea:77:59:f2:7c:17:0b:c2:
         02:21:00:a2:99:08:44:51:bf:c1:6c:f6:4a:54:0e:8e:f3:01:
         dd:2e:b1:13:07:11:13:6b:9b:06:e4:af:ce:a1:2f:6b:e8
-----BEGIN CERTIFICATE-----
MIIDATCCAqegAwIBAgIDAK2uMAoGCCqGSM49BAMCMIGHMQswCQYDVQQGEwJGUjEW
MBQGA1UECAwNSWxlIGRlIEZyYW5jZTEaMBgGA1UEBwwRTWFnbnkgbGVzIEhhbWVh
dXgxETAPBgNVBAoMCEFXUyBUZWFtMRQwEgYDVQQDDAtQYXNjYWwgT2JyeTEbMBkG
CSqGSIb3DQEJARYMYXdzQG9icnkubmV0MB4XDTIwMTAyODAzMzkyM1oXDTI0MTAy
NzAzMzkyM1owdjELMAkGA1UEBhMCRlIxFjAUBgNVBAgMDUlsZSBkZSBGcmFuY2Ux
ETAPBgNVBAoMCEFXUyBUZWFtMRQwEgYDVQQDDAtKZWFuIER1cG9udDEmMCQGCSqG
SIb3DQEJARYXamVhbi5kdXBvbnRAbm93aGVyZS5jb20wWTATBgcqhkjOPQIBBggq
hkjOPQMBBwNCAARW+oVJBJ9Q1FlptuiN4B3iCHvyx75MoYKvmVppxKVbHz8lPDim
wMOy6vo4uR1Sryl9JQ3fHUQHjkMz9piYRIq2o4IBEDCCAQwwCQYDVR0TBAIwADAs
BglghkgBhvhCAQ0EHxYdT3BlblNTTCBHZW5lcmF0ZWQgQ2VydGlmaWNhdGUwHQYD
VR0OBBYEFL/ku37IKuYAagG9K+n6+H7MkPxJMIGxBgNVHSMEgakwgaahgY2kgYow
gYcxCzAJBgNVBAYTAkZSMRYwFAYDVQQIDA1JbGUgZGUgRnJhbmNlMRowGAYDVQQH
DBFNYWdueSBsZXMgSGFtZWF1eDERMA8GA1UECgwIQVdTIFRlYW0xFDASBgNVBAMM
C1Bhc2NhbCBPYnJ5MRswGQYJKoZIhvcNAQkBFgxhd3NAb2JyeS5uZXSCFF6dbwfJ
Z6ymLPOB3Jhh5w+OVjdhMAoGCCqGSM49BAMCA0gAMEUCIC0APEbup6s8pf4YpxFf
M8qE6jj+7UBkZ+p3WfJ8FwvCAiEAopkIRFG/wWz2SlQOjvMB3S6xEwcRE2ubBuSv
zqEva+g=
-----END CERTIFICATE-----
-----BEGIN PRIVATE KEY-----
MIGHAgEAMBMGByqGSM49AgEGCCqGSM49AwEHBG0wawIBAQQg1INNfqMUEp9iwUQM
T3dNRWz2ZR5Ft/06dbpyjnYuCGyhRANCAARW+oVJBJ9Q1FlptuiN4B3iCHvyx75M
oYKvmVppxKVbHz8lPDimwMOy6vo4uR1Sryl9JQ3fHUQHjkMz9piYRIq2
-----END PRIVATE KEY-----
