-----BEGIN PRIVATE KEY-----
MIIEvQIBADANBgkqhkiG9w0BAQEFAASCBKcwggSjAgEAAoIBAQDdcjuZXExgIBDy
mJQ9So2a5ec9pJIKbUUFomjvmD7nMvs16aRZS/6qj50K+uJBMyIdpHA8LLpNzyyg
DsN5rq8StmOIms4GB0OrG6X9VpK1aWirTwS5nNGsvz5/zcMnpvpfZHm83wMmMPT4
wtp3B2NXBgVAQitBaVaiMo76RygMgJvOVo42zC+idMTzpDu+PIzvTB10ifXlAYBd
2kRzHV+N959MZnMhYz5HAZS+N0jrcSRNtgOiD25zr849c5Fd0Z5HWG4tj6Hom7de
ZhOKA73MCIBTwlXz+uzrpPTa7HZ8kPf4/ADhrd71vjTA5usuBJaZasrH2ca9xjz/
jvQ7eHe1AgMBAAECggEAdk6iQrPJ5g0boNAdWoVrE9dB7G/wyftIxdLX5zFaYeCd
z1bMxBxSqULirswMdrLfxiBlCfEHc6x8deKNUoQd6oxgrsmtyhC1eUPjMW7AIIV5
MxSbPKLobjcaJ+OBIL0XxEEEvQAUSaIcLo7DcpYS35pK0eLIA0FI1IzYUCQV5F8O
61lwc+pQpzNW0kAONtghmAXF7fEJeWMGaSj3mFCb2TCyf3G6Crtki2KXOCWiB2UN
7QYEogyEbRt2VqhyKSU6ZhpsoYvtTyjJbJvsK+ydtyur/uLMsUKvOXmhuNfwfZkA
VtIwtyQRMPTNSVjd523qT0FARExA63RROQgwDIf5nQKBgQDyW7+l5a9aGxTLeETK
XV7fe1UspaFW0WnURDXJzt9Wmuj8vQakwWI6bQPNiIU/d/dtxjJ+CdlhtaHvJ/yA
loKidZsCcH0P153ng9C76XtNCB6DkIA4XZ+JRcFwLexCRNrva7BirXVqESfKqkiS
2UhYjChj/HWoLtDCiKgwN5l53wKBgQDp6Sa6PnolwyAHAuanAI4u1mArS6qOyIN8
i1tI5D8OsMQ4WeVRtZrKOw0qIyAJx6cm7fbBNI+GebiX4+TsVzZGHfbeq1o/N+VH
ABMWmV6C4ooSrcGlpdyw2YYrhbfcYTrZObaEOxoxDHcEScxkN6p0iy61KceXeNUV
Sq2U0E1o6wKBgGI7I8OXA+rOnTAXMDKhg6mrMIunGmy49l8NwotoaQeORC7kYsP2
idzKgMcWtYNTGZuJwL9rOIus9dScbXClEI/OgSSM+XOpXhwPRlRTvyEq0EtdD0tJ
TzdxaYURZ/g4NlDiYhys17FFAM7ZFA9JOFSDgn98PSgMyZp/j0Pz1SYbAoGBAORy
RtaCij0zMqZmWOolireHu2jNf4fvoSsT11V7RXKNhTYb5fFFUiXMQnEy2Ol0SnWk
1uee88W8P2Joun1wN5uHTEHwTDWN26jaE8pwg3OE2KChfozPTpiR+Y2sDQN5GkZp
LS47orrgl6RihvIhw6ILBNT+NuZipoki5CCAx/l9AoGAOUnu5gBm5KH/qi6d+2Tj
Ix/6YFsdna2PUzeUCFEIGXPaWKRQr0F/p3SSjqwSMJBTDXH0/GGPDz4BMm9ipHwF
5A+OF+e+EvLzKCu0tIQFlLCsVmlHMbpQ7bW78tIc8onAkb1RPXiHQZe/WfS2UEWl
whPeprcCkrGh9Pl7fjY2BIo=
-----END PRIVATE KEY-----
Certificate:
    Data:
        Version: 3 (0x2)
        Serial Number: 44461 (0xadad)
    Signature Algorithm: sha256WithRSAEncryption
        Issuer: C=FR, ST=Ile de France, L=Magny les Hameaux, O=AWS Team, CN=Pascal Obry/emailAddress=aws@obry.net
        Validity
            Not Before: Sep  1 07:34:23 2018 GMT
            Not After : Sep 11 07:34:23 2018 GMT
        Subject: C=FR, ST=Ile de France, O=AWS Team, CN=Jean Dupont/emailAddress=jean.dupont@nowhere.com
        Subject Public Key Info:
            Public Key Algorithm: rsaEncryption
                Public-Key: (2048 bit)
                Modulus:
                    00:dd:72:3b:99:5c:4c:60:20:10:f2:98:94:3d:4a:
                    8d:9a:e5:e7:3d:a4:92:0a:6d:45:05:a2:68:ef:98:
                    3e:e7:32:fb:35:e9:a4:59:4b:fe:aa:8f:9d:0a:fa:
                    e2:41:33:22:1d:a4:70:3c:2c:ba:4d:cf:2c:a0:0e:
                    c3:79:ae:af:12:b6:63:88:9a:ce:06:07:43:ab:1b:
                    a5:fd:56:92:b5:69:68:ab:4f:04:b9:9c:d1:ac:bf:
                    3e:7f:cd:c3:27:a6:fa:5f:64:79:bc:df:03:26:30:
                    f4:f8:c2:da:77:07:63:57:06:05:40:42:2b:41:69:
                    56:a2:32:8e:fa:47:28:0c:80:9b:ce:56:8e:36:cc:
                    2f:a2:74:c4:f3:a4:3b:be:3c:8c:ef:4c:1d:74:89:
                    f5:e5:01:80:5d:da:44:73:1d:5f:8d:f7:9f:4c:66:
                    73:21:63:3e:47:01:94:be:37:48:eb:71:24:4d:b6:
                    03:a2:0f:6e:73:af:ce:3d:73:91:5d:d1:9e:47:58:
                    6e:2d:8f:a1:e8:9b:b7:5e:66:13:8a:03:bd:cc:08:
                    80:53:c2:55:f3:fa:ec:eb:a4:f4:da:ec:76:7c:90:
                    f7:f8:fc:00:e1:ad:de:f5:be:34:c0:e6:eb:2e:04:
                    96:99:6a:ca:c7:d9:c6:bd:c6:3c:ff:8e:f4:3b:78:
                    77:b5
                Exponent: 65537 (0x10001)
        X509v3 extensions:
            X509v3 Basic Constraints:
                CA:FALSE
            Netscape Comment:
                OpenSSL Generated Certificate
            X509v3 Subject Key Identifier:
                19:05:84:16:2A:72:B0:13:3D:E2:6F:59:1D:8A:2A:B0:9A:7C:B9:EF
            X509v3 Authority Key Identifier:
                DirName:/C=FR/ST=Ile de France/L=Magny les Hameaux/O=AWS Team/CN=Pascal Obry/emailAddress=aws@obry.net
                serial:8C:63:75:B9:B2:D7:8B:F4

    Signature Algorithm: sha256WithRSAEncryption
         a2:19:38:ae:b6:e3:82:15:57:9c:60:c8:64:d9:ae:64:ae:52:
         9c:91:c7:66:b4:21:80:b6:7a:fd:cf:41:c1:16:70:07:25:31:
         00:50:19:b4:d7:aa:37:56:c0:1a:3d:ff:39:fc:6c:d0:7f:83:
         d1:1f:47:4f:7c:a4:13:5c:d6:7f:95:c8:5a:cc:4c:8f:2f:eb:
         ad:b4:21:bd:41:99:f0:61:22:cd:4e:f5:59:c1:b9:74:f3:bc:
         77:27:c3:3b:0e:3c:5c:ad:cd:bd:ce:8d:93:72:f4:d9:ec:51:
         55:94:84:53:db:14:80:e1:18:5e:b5:ee:93:3d:4a:5e:bf:01:
         f4:d5:e8:89:38:72:21:41:4c:65:6d:36:da:3f:8e:b6:12:03:
         00:e3:6e:9b:c4:5b:a0:a7:1f:40:f3:56:c2:6b:a0:95:ee:92:
         30:ad:76:56:4d:09:d3:36:74:f9:22:bc:29:2a:07:cd:0b:eb:
         d0:1a:5e:dc:0c:b6:5f:78:ed:0a:77:9e:61:ea:c6:34:45:f1:
         93:50:34:f8:d7:e1:31:6d:de:97:e8:f9:22:2a:de:3a:3d:b1:
         b9:2d:60:7a:f2:43:fc:b3:02:22:1d:f2:73:ec:1d:18:d1:71:
         45:d6:f8:e6:a2:06:29:9d:42:c4:31:a2:49:fe:ce:77:68:e6:
         21:93:34:cd
-----BEGIN CERTIFICATE-----
MIIEgjCCA2qgAwIBAgIDAK2tMA0GCSqGSIb3DQEBCwUAMIGHMQswCQYDVQQGEwJG
UjEWMBQGA1UECAwNSWxlIGRlIEZyYW5jZTEaMBgGA1UEBwwRTWFnbnkgbGVzIEhh
bWVhdXgxETAPBgNVBAoMCEFXUyBUZWFtMRQwEgYDVQQDDAtQYXNjYWwgT2JyeTEb
MBkGCSqGSIb3DQEJARYMYXdzQG9icnkubmV0MB4XDTE4MDkwMTA3MzQyM1oXDTE4
MDkxMTA3MzQyM1owdjELMAkGA1UEBhMCRlIxFjAUBgNVBAgMDUlsZSBkZSBGcmFu
Y2UxETAPBgNVBAoMCEFXUyBUZWFtMRQwEgYDVQQDDAtKZWFuIER1cG9udDEmMCQG
CSqGSIb3DQEJARYXamVhbi5kdXBvbnRAbm93aGVyZS5jb20wggEiMA0GCSqGSIb3
DQEBAQUAA4IBDwAwggEKAoIBAQDdcjuZXExgIBDymJQ9So2a5ec9pJIKbUUFomjv
mD7nMvs16aRZS/6qj50K+uJBMyIdpHA8LLpNzyygDsN5rq8StmOIms4GB0OrG6X9
VpK1aWirTwS5nNGsvz5/zcMnpvpfZHm83wMmMPT4wtp3B2NXBgVAQitBaVaiMo76
RygMgJvOVo42zC+idMTzpDu+PIzvTB10ifXlAYBd2kRzHV+N959MZnMhYz5HAZS+
N0jrcSRNtgOiD25zr849c5Fd0Z5HWG4tj6Hom7deZhOKA73MCIBTwlXz+uzrpPTa
7HZ8kPf4/ADhrd71vjTA5usuBJaZasrH2ca9xjz/jvQ7eHe1AgMBAAGjggEFMIIB
ATAJBgNVHRMEAjAAMCwGCWCGSAGG+EIBDQQfFh1PcGVuU1NMIEdlbmVyYXRlZCBD
ZXJ0aWZpY2F0ZTAdBgNVHQ4EFgQUGQWEFipysBM94m9ZHYoqsJp8ue8wgaYGA1Ud
IwSBnjCBm6GBjaSBijCBhzELMAkGA1UEBhMCRlIxFjAUBgNVBAgMDUlsZSBkZSBG
cmFuY2UxGjAYBgNVBAcMEU1hZ255IGxlcyBIYW1lYXV4MREwDwYDVQQKDAhBV1Mg
VGVhbTEUMBIGA1UEAwwLUGFzY2FsIE9icnkxGzAZBgkqhkiG9w0BCQEWDGF3c0Bv
YnJ5Lm5ldIIJAIxjdbmy14v0MA0GCSqGSIb3DQEBCwUAA4IBAQCiGTiutuOCFVec
YMhk2a5krlKckcdmtCGAtnr9z0HBFnAHJTEAUBm016o3VsAaPf85/GzQf4PRH0dP
fKQTXNZ/lchazEyPL+uttCG9QZnwYSLNTvVZwbl087x3J8M7Djxcrc29zo2TcvTZ
7FFVlIRT2xSA4Rhete6TPUpevwH01eiJOHIhQUxlbTbaP462EgMA426bxFugpx9A
81bCa6CV7pIwrXZWTQnTNnT5IrwpKgfNC+vQGl7cDLZfeO0Kd55h6sY0RfGTUDT4
1+Exbd6X6PkiKt46PbG5LWB68kP8swIiHfJz7B0Y0XFF1vjmogYpnULEMaJJ/s53
aOYhkzTN
-----END CERTIFICATE-----
