Certificate:
    Data:
        Version: 3 (0x2)
        Serial Number: 44460 (0xadac)
    Signature Algorithm: ecdsa-with-SHA256
        Issuer: C=FR, ST=Ile de France, O=AdaCore, OU=CA, CN=CA-Web-Server/emailAddress=ca-aws@adacore.com
        Validity
            Not Before: Mar 22 11:16:50 2019 GMT
            Not After : Mar 21 11:16:50 2023 GMT
        Subject: C=FR, ST=Ile de France, O=AdaCore, OU=CRM, CN=localhost/emailAddress=aws-test@adacore.com
        Subject Public Key Info:
            Public Key Algorithm: id-ecPublicKey
                Public-Key: (256 bit)
                pub:
                    04:06:18:06:04:08:90:a4:d5:ec:2d:82:4a:5c:4b:
                    ca:cd:5b:e6:24:03:e5:2f:cd:be:68:e0:3f:8b:36:
                    38:3e:f6:ef:e8:10:73:bd:0b:10:08:26:1e:42:67:
                    69:74:b6:ec:fb:7c:b3:99:7f:c5:17:56:85:17:6e:
                    d0:14:f0:31:5f
                ASN1 OID: prime256v1
                NIST CURVE: P-256
        X509v3 extensions:
            X509v3 Basic Constraints: 
                CA:FALSE
            Netscape Comment: 
                OpenSSL Generated Certificate
            X509v3 Subject Key Identifier: 
                37:F0:53:5F:88:FC:47:97:A8:A1:4C:87:16:FD:D6:EE:5A:1A:98:4C
            X509v3 Authority Key Identifier: 
                DirName:/C=FR/ST=Ile de France/O=AdaCore/OU=CA/CN=CA-Web-Server/emailAddress=ca-aws@adacore.com
                serial:9B:27:E2:8A:99:54:4C:99

    Signature Algorithm: ecdsa-with-SHA256
         30:44:02:20:1d:9c:77:6a:a3:59:66:29:f5:58:bf:03:3d:c7:
         78:c9:9d:54:6b:dd:5c:de:27:66:5a:8e:28:d2:5f:d2:6a:7d:
         02:20:10:4b:c2:92:4c:7e:31:a6:5b:d1:b3:77:4c:e2:14:64:
         df:bd:b0:72:e1:6b:bc:ed:c9:85:58:6c:30:48:35:e8
-----BEGIN CERTIFICATE-----
MIIC6TCCApCgAwIBAgIDAK2sMAoGCCqGSM49BAMCMH8xCzAJBgNVBAYTAkZSMRYw
FAYDVQQIDA1JbGUgZGUgRnJhbmNlMRAwDgYDVQQKDAdBZGFDb3JlMQswCQYDVQQL
DAJDQTEWMBQGA1UEAwwNQ0EtV2ViLVNlcnZlcjEhMB8GCSqGSIb3DQEJARYSY2Et
YXdzQGFkYWNvcmUuY29tMB4XDTE5MDMyMjExMTY1MFoXDTIzMDMyMTExMTY1MFow
fjELMAkGA1UEBhMCRlIxFjAUBgNVBAgMDUlsZSBkZSBGcmFuY2UxEDAOBgNVBAoM
B0FkYUNvcmUxDDAKBgNVBAsMA0NSTTESMBAGA1UEAwwJbG9jYWxob3N0MSMwIQYJ
KoZIhvcNAQkBFhRhd3MtdGVzdEBhZGFjb3JlLmNvbTBZMBMGByqGSM49AgEGCCqG
SM49AwEHA0IABAYYBgQIkKTV7C2CSlxLys1b5iQD5S/NvmjgP4s2OD727+gQc70L
EAgmHkJnaXS27Pt8s5l/xRdWhRdu0BTwMV+jgfswgfgwCQYDVR0TBAIwADAsBglg
hkgBhvhCAQ0EHxYdT3BlblNTTCBHZW5lcmF0ZWQgQ2VydGlmaWNhdGUwHQYDVR0O
BBYEFDfwU1+I/EeXqKFMhxb91u5aGphMMIGdBgNVHSMEgZUwgZKhgYSkgYEwfzEL
MAkGA1UEBhMCRlIxFjAUBgNVBAgMDUlsZSBkZSBGcmFuY2UxEDAOBgNVBAoMB0Fk
YUNvcmUxCzAJBgNVBAsMAkNBMRYwFAYDVQQDDA1DQS1XZWItU2VydmVyMSEwHwYJ
KoZIhvcNAQkBFhJjYS1hd3NAYWRhY29yZS5jb22CCQCbJ+KKmVRMmTAKBggqhkjO
PQQDAgNHADBEAiAdnHdqo1lmKfVYvwM9x3jJnVRr3VzeJ2ZajijSX9JqfQIgEEvC
kkx+MaZb0bN3TOIUZN+9sHLha7ztyYVYbDBINeg=
-----END CERTIFICATE-----
