Certificate:
    Data:
        Version: 3 (0x2)
        Serial Number: 44460 (0xadac)
    Signature Algorithm: sha256WithRSAEncryption
        Issuer: C=FR, ST=Ile de France, O=AdaCore, OU=CA, CN=CA-Web-Server/emailAddress=ca-aws@adacore.com
        Validity
            Not Before: Sep  1 07:34:23 2018 GMT
            Not After : Aug 31 07:34:23 2022 GMT
        Subject: C=FR, ST=Ile de France, O=AdaCore, OU=CRM, CN=localhost/emailAddress=aws-test@adacore.com
        Subject Public Key Info:
            Public Key Algorithm: rsaEncryption
                Public-Key: (2048 bit)
                Modulus:
                    00:ed:9e:8e:66:47:1a:21:65:17:08:c8:5f:f8:9d:
                    43:bf:54:36:a4:1f:9b:71:44:e0:d3:bb:60:16:5a:
                    76:0a:a2:ac:0d:c4:7b:4d:14:28:6a:b8:3b:86:db:
                    7c:73:c2:db:f8:0a:b5:80:fe:e6:7c:03:27:67:de:
                    bd:c5:62:7d:4c:70:be:56:a9:41:3d:49:02:19:0a:
                    f4:83:75:18:56:a8:96:06:e2:1b:82:8d:ea:52:5a:
                    d2:14:36:78:f9:22:7e:0a:42:b8:10:55:b0:8c:26:
                    88:40:13:dd:cf:fe:9b:f2:20:41:50:e1:fb:5f:6f:
                    c4:13:71:99:00:af:0c:c4:fa:df:c7:39:37:b9:2d:
                    ab:f9:61:c7:18:e5:26:c4:80:75:dc:ef:df:64:78:
                    b0:69:a0:93:83:d6:1a:0f:81:b6:67:92:67:47:80:
                    ac:c4:19:26:33:92:70:b2:23:b8:2b:57:21:3c:e0:
                    a9:0b:bc:78:44:77:5a:b3:60:0b:8c:62:89:b7:2f:
                    41:70:6e:61:84:7c:41:f9:06:a5:16:ee:61:f7:37:
                    54:cb:74:64:8c:d5:a5:58:99:0f:08:35:57:96:84:
                    ee:f7:f9:4b:62:2f:60:71:ba:69:f3:b3:d0:cc:dc:
                    ae:1c:96:cf:33:bd:2d:ed:c7:ed:ae:f3:5c:66:87:
                    e0:b9
                Exponent: 65537 (0x10001)
        X509v3 extensions:
            X509v3 Basic Constraints: 
                CA:FALSE
            Netscape Comment: 
                OpenSSL Generated Certificate
            X509v3 Subject Key Identifier: 
                EC:DE:15:07:F7:BB:7A:41:53:A3:7F:71:49:0F:E1:BB:97:0C:AF:D3
            X509v3 Authority Key Identifier: 
                DirName:/C=FR/ST=Ile de France/O=AdaCore/OU=CA/CN=CA-Web-Server/emailAddress=ca-aws@adacore.com
                serial:AC:65:42:37:88:91:35:9A

    Signature Algorithm: sha256WithRSAEncryption
         38:0b:91:db:2c:23:4b:14:93:e0:10:99:ba:45:d7:9b:b7:67:
         d1:54:d2:e7:1d:96:89:d3:e2:0a:69:e8:4c:29:25:fa:ad:06:
         4e:48:be:33:29:b9:bd:71:dc:57:fd:9a:2c:8d:a0:88:d1:04:
         f0:9c:a2:a1:86:31:27:9f:47:1d:94:3f:b3:13:12:79:36:0d:
         18:1e:59:77:92:c8:16:0c:e8:47:60:38:27:e7:91:c1:bc:65:
         00:3a:75:a5:85:82:8a:97:7f:eb:de:25:c3:67:fd:49:01:6d:
         b7:e4:8c:e6:62:52:25:f9:d8:87:17:cd:90:a3:91:aa:13:ac:
         22:20:a1:0b:b3:7e:af:17:43:00:f5:1a:88:ea:e1:29:4d:92:
         44:d2:c0:d7:5d:61:0e:51:ce:af:3f:c3:f7:73:f9:67:5d:40:
         16:21:94:b0:57:5c:40:a3:93:80:52:68:3c:9f:dc:0d:b6:ef:
         63:98:7a:a4:23:db:f1:7b:06:37:69:44:94:81:d4:af:be:af:
         4c:57:83:b9:d5:a5:55:c9:dd:52:03:3e:0b:7b:c2:c2:84:13:
         f9:ee:6a:f8:d6:33:60:be:a2:e2:c6:69:d1:32:fc:25:8e:94:
         23:ac:e6:aa:46:20:6d:d6:02:22:88:20:c1:bb:60:97:a5:f5:
         3a:bc:17:a6
-----BEGIN CERTIFICATE-----
MIIEdjCCA16gAwIBAgIDAK2sMA0GCSqGSIb3DQEBCwUAMH8xCzAJBgNVBAYTAkZS
MRYwFAYDVQQIDA1JbGUgZGUgRnJhbmNlMRAwDgYDVQQKDAdBZGFDb3JlMQswCQYD
VQQLDAJDQTEWMBQGA1UEAwwNQ0EtV2ViLVNlcnZlcjEhMB8GCSqGSIb3DQEJARYS
Y2EtYXdzQGFkYWNvcmUuY29tMB4XDTE4MDkwMTA3MzQyM1oXDTIyMDgzMTA3MzQy
M1owfjELMAkGA1UEBhMCRlIxFjAUBgNVBAgMDUlsZSBkZSBGcmFuY2UxEDAOBgNV
BAoMB0FkYUNvcmUxDDAKBgNVBAsMA0NSTTESMBAGA1UEAwwJbG9jYWxob3N0MSMw
IQYJKoZIhvcNAQkBFhRhd3MtdGVzdEBhZGFjb3JlLmNvbTCCASIwDQYJKoZIhvcN
AQEBBQADggEPADCCAQoCggEBAO2ejmZHGiFlFwjIX/idQ79UNqQfm3FE4NO7YBZa
dgqirA3Ee00UKGq4O4bbfHPC2/gKtYD+5nwDJ2fevcVifUxwvlapQT1JAhkK9IN1
GFaolgbiG4KN6lJa0hQ2ePkifgpCuBBVsIwmiEAT3c/+m/IgQVDh+19vxBNxmQCv
DMT638c5N7ktq/lhxxjlJsSAddzv32R4sGmgk4PWGg+BtmeSZ0eArMQZJjOScLIj
uCtXITzgqQu8eER3WrNgC4xiibcvQXBuYYR8QfkGpRbuYfc3VMt0ZIzVpViZDwg1
V5aE7vf5S2IvYHG6afOz0MzcrhyWzzO9Le3H7a7zXGaH4LkCAwEAAaOB+zCB+DAJ
BgNVHRMEAjAAMCwGCWCGSAGG+EIBDQQfFh1PcGVuU1NMIEdlbmVyYXRlZCBDZXJ0
aWZpY2F0ZTAdBgNVHQ4EFgQU7N4VB/e7ekFTo39xSQ/hu5cMr9MwgZ0GA1UdIwSB
lTCBkqGBhKSBgTB/MQswCQYDVQQGEwJGUjEWMBQGA1UECAwNSWxlIGRlIEZyYW5j
ZTEQMA4GA1UECgwHQWRhQ29yZTELMAkGA1UECwwCQ0ExFjAUBgNVBAMMDUNBLVdl
Yi1TZXJ2ZXIxITAfBgkqhkiG9w0BCQEWEmNhLWF3c0BhZGFjb3JlLmNvbYIJAKxl
QjeIkTWaMA0GCSqGSIb3DQEBCwUAA4IBAQA4C5HbLCNLFJPgEJm6Rdebt2fRVNLn
HZaJ0+IKaehMKSX6rQZOSL4zKbm9cdxX/ZosjaCI0QTwnKKhhjEnn0cdlD+zExJ5
Ng0YHll3ksgWDOhHYDgn55HBvGUAOnWlhYKKl3/r3iXDZ/1JAW235IzmYlIl+diH
F82Qo5GqE6wiIKELs36vF0MA9RqI6uEpTZJE0sDXXWEOUc6vP8P3c/lnXUAWIZSw
V1xAo5OAUmg8n9wNtu9jmHqkI9vxewY3aUSUgdSvvq9MV4O51aVVyd1SAz4Le8LC
hBP57mr41jNgvqLixmnRMvwljpQjrOaqRiBt1gIiiCDBu2CXpfU6vBem
-----END CERTIFICATE-----
