Certificate:
    Data:
        Version: 3 (0x2)
        Serial Number: 44461 (0xadad)
        Signature Algorithm: ecdsa-with-SHA256
        Issuer: C=FR, ST=Ile de France, L=Magny les Hameaux, O=AWS Team, CN=Pascal Obry/emailAddress=aws@obry.net
        Validity
            Not Before: Jun 20 17:22:09 2020 GMT
            Not After : Jun 19 17:22:09 2024 GMT
        Subject: C=FR, ST=Ile de France, O=AWS Team, CN=Jean Dupont/emailAddress=jean.dupont@nowhere.com
        Subject Public Key Info:
            Public Key Algorithm: id-ecPublicKey
                Public-Key: (256 bit)
                pub:
                    04:ab:fe:35:f4:f6:eb:c1:a8:91:70:e6:79:2b:6f:
                    b8:58:f6:ba:0d:9f:35:42:5d:2f:d5:a6:fb:00:f6:
                    fd:88:06:44:81:7e:79:91:35:62:12:9f:76:6d:1f:
                    99:ed:c8:6c:a0:59:3f:0e:06:f7:07:2a:0c:7f:38:
                    84:8c:e9:20:ee
                ASN1 OID: prime256v1
                NIST CURVE: P-256
        X509v3 extensions:
            X509v3 Basic Constraints: 
                CA:FALSE
            Netscape Comment: 
                OpenSSL Generated Certificate
            X509v3 Subject Key Identifier: 
                84:03:70:C3:91:D1:47:57:BF:9B:84:D4:D3:86:75:AF:D5:C3:64:F3
            X509v3 Authority Key Identifier: 
                DirName:/C=FR/ST=Ile de France/L=Magny les Hameaux/O=AWS Team/CN=Pascal Obry/emailAddress=aws@obry.net
                serial:52:D4:90:67:A4:12:0D:7C:85:2C:9E:5A:AE:EF:CF:27:7A:B7:C6:20

    Signature Algorithm: ecdsa-with-SHA256
         30:45:02:20:51:21:8a:fc:68:f3:fb:be:40:a6:ea:58:ac:23:
         d4:ba:5a:d7:74:d4:29:76:13:3f:ec:2d:2e:94:71:52:cd:64:
         02:21:00:b2:e9:48:ba:79:82:cf:90:49:d4:ed:9e:38:d7:83:
         e9:8e:bc:d8:13:e8:20:e4:03:d0:a2:04:1a:51:cf:a3:e3
-----BEGIN CERTIFICATE-----
MIIDATCCAqegAwIBAgIDAK2tMAoGCCqGSM49BAMCMIGHMQswCQYDVQQGEwJGUjEW
MBQGA1UECAwNSWxlIGRlIEZyYW5jZTEaMBgGA1UEBwwRTWFnbnkgbGVzIEhhbWVh
dXgxETAPBgNVBAoMCEFXUyBUZWFtMRQwEgYDVQQDDAtQYXNjYWwgT2JyeTEbMBkG
CSqGSIb3DQEJARYMYXdzQG9icnkubmV0MB4XDTIwMDYyMDE3MjIwOVoXDTI0MDYx
OTE3MjIwOVowdjELMAkGA1UEBhMCRlIxFjAUBgNVBAgMDUlsZSBkZSBGcmFuY2Ux
ETAPBgNVBAoMCEFXUyBUZWFtMRQwEgYDVQQDDAtKZWFuIER1cG9udDEmMCQGCSqG
SIb3DQEJARYXamVhbi5kdXBvbnRAbm93aGVyZS5jb20wWTATBgcqhkjOPQIBBggq
hkjOPQMBBwNCAASr/jX09uvBqJFw5nkrb7hY9roNnzVCXS/VpvsA9v2IBkSBfnmR
NWISn3ZtH5ntyGygWT8OBvcHKgx/OISM6SDuo4IBEDCCAQwwCQYDVR0TBAIwADAs
BglghkgBhvhCAQ0EHxYdT3BlblNTTCBHZW5lcmF0ZWQgQ2VydGlmaWNhdGUwHQYD
VR0OBBYEFIQDcMOR0UdXv5uE1NOGda/Vw2TzMIGxBgNVHSMEgakwgaahgY2kgYow
gYcxCzAJBgNVBAYTAkZSMRYwFAYDVQQIDA1JbGUgZGUgRnJhbmNlMRowGAYDVQQH
DBFNYWdueSBsZXMgSGFtZWF1eDERMA8GA1UECgwIQVdTIFRlYW0xFDASBgNVBAMM
C1Bhc2NhbCBPYnJ5MRswGQYJKoZIhvcNAQkBFgxhd3NAb2JyeS5uZXSCFFLUkGek
Eg18hSyeWq7vzyd6t8YgMAoGCCqGSM49BAMCA0gAMEUCIFEhivxo8/u+QKbqWKwj
1Lpa13TUKXYTP+wtLpRxUs1kAiEAsulIunmCz5BJ1O2eONeD6Y682BPoIOQD0KIE
GlHPo+M=
-----END CERTIFICATE-----
-----BEGIN PRIVATE KEY-----
MIGHAgEAMBMGByqGSM49AgEGCCqGSM49AwEHBG0wawIBAQQgCY175MgLxB9SfxGL
byQiupLO6/Uu3YC0Nsf73bMiz+mhRANCAASr/jX09uvBqJFw5nkrb7hY9roNnzVC
XS/VpvsA9v2IBkSBfnmRNWISn3ZtH5ntyGygWT8OBvcHKgx/OISM6SDu
-----END PRIVATE KEY-----
