Certificate:
    Data:
        Version: 3 (0x2)
        Serial Number: 44462 (0xadae)
        Signature Algorithm: ecdsa-with-SHA256
        Issuer: C=FR, ST=Ile de France, L=Magny les Hameaux, O=AWS Team, CN=Pascal Obry/emailAddress=aws@obry.net
        Validity
            Not Before: Feb  8 07:19:27 2023 GMT
            Not After : Dec 17 07:19:27 2032 GMT
        Subject: C=FR, ST=Ile de France, O=AWS Team, CN=Jean Dupont/emailAddress=jean.dupont@nowhere.com
        Subject Public Key Info:
            Public Key Algorithm: id-ecPublicKey
                Public-Key: (256 bit)
                pub:
                    04:7d:c0:a7:43:77:d7:cb:19:ec:5a:4f:85:0b:58:
                    19:14:5c:3d:8e:79:da:23:91:8b:46:cc:94:b3:78:
                    8c:b3:b9:d5:79:61:a6:fc:29:28:95:b3:f3:80:5d:
                    d5:e5:6d:54:cf:64:97:5e:7e:11:6f:6e:32:d3:f4:
                    31:4f:2b:48:6f
                ASN1 OID: prime256v1
                NIST CURVE: P-256
        X509v3 extensions:
            X509v3 Basic Constraints: 
                CA:FALSE
            X509v3 Subject Key Identifier: 
                55:7D:96:B5:AE:92:5D:63:84:3E:42:9F:CA:FB:F0:F7:DF:40:A1:0F
            X509v3 Authority Key Identifier: 
                DirName:/C=FR/ST=Ile de France/L=Magny les Hameaux/O=AWS Team/CN=Pascal Obry/emailAddress=aws@obry.net
                serial:1A:0A:46:65:6D:65:C5:98:15:6C:81:B9:EA:39:C2:D2:DB:D8:79:79
    Signature Algorithm: ecdsa-with-SHA256
    Signature Value:
        30:46:02:21:00:9a:0b:4e:42:d3:2d:a8:f0:da:76:ed:6e:e2:
        08:c2:7a:25:8c:2c:5a:40:1f:4f:fe:b7:92:fa:25:e2:a1:32:
        1f:02:21:00:d9:62:05:f4:d4:5d:1d:97:d0:22:80:60:32:a8:
        e2:81:1b:c5:50:57:e0:d5:f0:bc:70:b7:c4:bf:be:0e:31:d7
-----BEGIN CERTIFICATE-----
MIIC0jCCAnegAwIBAgIDAK2uMAoGCCqGSM49BAMCMIGHMQswCQYDVQQGEwJGUjEW
MBQGA1UECAwNSWxlIGRlIEZyYW5jZTEaMBgGA1UEBwwRTWFnbnkgbGVzIEhhbWVh
dXgxETAPBgNVBAoMCEFXUyBUZWFtMRQwEgYDVQQDDAtQYXNjYWwgT2JyeTEbMBkG
CSqGSIb3DQEJARYMYXdzQG9icnkubmV0MB4XDTIzMDIwODA3MTkyN1oXDTMyMTIx
NzA3MTkyN1owdjELMAkGA1UEBhMCRlIxFjAUBgNVBAgMDUlsZSBkZSBGcmFuY2Ux
ETAPBgNVBAoMCEFXUyBUZWFtMRQwEgYDVQQDDAtKZWFuIER1cG9udDEmMCQGCSqG
SIb3DQEJARYXamVhbi5kdXBvbnRAbm93aGVyZS5jb20wWTATBgcqhkjOPQIBBggq
hkjOPQMBBwNCAAR9wKdDd9fLGexaT4ULWBkUXD2OedojkYtGzJSzeIyzudV5Yab8
KSiVs/OAXdXlbVTPZJdefhFvbjLT9DFPK0hvo4HhMIHeMAkGA1UdEwQCMAAwHQYD
VR0OBBYEFFV9lrWukl1jhD5Cn8r78PffQKEPMIGxBgNVHSMEgakwgaahgY2kgYow
gYcxCzAJBgNVBAYTAkZSMRYwFAYDVQQIDA1JbGUgZGUgRnJhbmNlMRowGAYDVQQH
DBFNYWdueSBsZXMgSGFtZWF1eDERMA8GA1UECgwIQVdTIFRlYW0xFDASBgNVBAMM
C1Bhc2NhbCBPYnJ5MRswGQYJKoZIhvcNAQkBFgxhd3NAb2JyeS5uZXSCFBoKRmVt
ZcWYFWyBueo5wtLb2Hl5MAoGCCqGSM49BAMCA0kAMEYCIQCaC05C0y2o8Np27W7i
CMJ6JYwsWkAfT/63kvol4qEyHwIhANliBfTUXR2X0CKAYDKo4oEbxVBX4NXwvHC3
xL++DjHX
-----END CERTIFICATE-----
-----BEGIN PRIVATE KEY-----
MIGHAgEAMBMGByqGSM49AgEGCCqGSM49AwEHBG0wawIBAQQgrVUkRbZUEU6Rjpv1
4GXM4x10t8iLOpHhpuMOXhJu58ehRANCAAR9wKdDd9fLGexaT4ULWBkUXD2Oedoj
kYtGzJSzeIyzudV5Yab8KSiVs/OAXdXlbVTPZJdefhFvbjLT9DFPK0hv
-----END PRIVATE KEY-----
