Certificate:
    Data:
        Version: 3 (0x2)
        Serial Number: 43948 (0xabac)
    Signature Algorithm: sha1WithRSAEncryption
        Issuer: C=FR, ST=Ile de France, L=Magny les Hameaux, O=AWS Team, CN=Pascal Obry/emailAddress=aws@obry.net
        Validity
            Not Before: Aug  5 11:22:42 2012 GMT
            Not After : Aug  5 11:22:42 2013 GMT
        Subject: C=FR, ST=Ile de France, O=AWS Team, CN=localhost/emailAddress=aws@obry.net
        Subject Public Key Info:
            Public Key Algorithm: rsaEncryption
                Public-Key: (1024 bit)
                Modulus:
                    00:ef:fb:b1:f0:db:14:88:5d:1d:54:55:08:b3:a2:
                    49:e8:43:35:94:20:1c:24:1d:93:a7:77:c8:f9:bb:
                    e5:8a:44:67:2e:f4:16:b7:63:e3:c0:d2:fa:3f:d2:
                    1a:f7:b4:47:04:d1:02:4b:7a:1b:11:96:df:84:f2:
                    f0:74:83:c4:a8:95:71:3b:62:9f:fa:46:4d:e5:c2:
                    5a:7a:f7:ee:52:30:36:d3:69:b4:fe:27:61:6b:6e:
                    d4:66:92:b5:95:2f:cf:76:5a:a2:bd:67:d1:a5:4e:
                    c3:44:56:bd:f1:85:a3:1b:26:2b:b4:ac:5e:50:d5:
                    5b:67:d9:80:72:f0:bf:71:bf
                Exponent: 65537 (0x10001)
        X509v3 extensions:
            X509v3 Basic Constraints: 
                CA:FALSE
            Netscape Comment: 
                OpenSSL Generated Certificate
            X509v3 Subject Key Identifier: 
                2D:90:1F:1D:FA:6A:8D:3B:AB:2D:D5:7B:37:48:C9:56:E8:FE:7C:3E
            X509v3 Authority Key Identifier: 
                DirName:/C=FR/ST=Ile de France/L=Magny les Hameaux/O=AWS Team/CN=Pascal Obry/emailAddress=aws@obry.net
                serial:DB:3F:9E:97:32:7D:96:7A

    Signature Algorithm: sha1WithRSAEncryption
         5e:b1:ed:35:bc:9d:9c:d2:5d:99:81:19:2e:2b:9a:67:e4:f4:
         36:3c:98:b2:41:a6:36:5f:34:fa:96:af:e7:98:6c:86:01:b4:
         f6:d2:ce:50:b5:24:f6:1e:f8:c6:bf:be:c2:72:b7:08:54:c9:
         ef:82:c1:78:cb:64:e0:87:e4:1d:37:cf:62:09:ad:b9:1a:55:
         cc:33:7e:13:fb:22:b5:d9:af:02:75:46:ec:39:73:2a:9b:08:
         44:b2:4f:a0:f1:d6:ba:b6:d4:4b:5f:fa:a1:9f:c5:ec:5a:c1:
         52:3b:d3:aa:db:83:62:5a:69:1d:2f:3c:9f:94:f3:8f:c2:7d:
         e5:c9
-----BEGIN CERTIFICATE-----
MIIDcDCCAtmgAwIBAgIDAKusMA0GCSqGSIb3DQEBBQUAMIGHMQswCQYDVQQGEwJG
UjEWMBQGA1UECAwNSWxlIGRlIEZyYW5jZTEaMBgGA1UEBwwRTWFnbnkgbGVzIEhh
bWVhdXgxETAPBgNVBAoMCEFXUyBUZWFtMRQwEgYDVQQDDAtQYXNjYWwgT2JyeTEb
MBkGCSqGSIb3DQEJARYMYXdzQG9icnkubmV0MB4XDTEyMDgwNTExMjI0MloXDTEz
MDgwNTExMjI0MlowaTELMAkGA1UEBhMCRlIxFjAUBgNVBAgMDUlsZSBkZSBGcmFu
Y2UxETAPBgNVBAoMCEFXUyBUZWFtMRIwEAYDVQQDDAlsb2NhbGhvc3QxGzAZBgkq
hkiG9w0BCQEWDGF3c0BvYnJ5Lm5ldDCBnzANBgkqhkiG9w0BAQEFAAOBjQAwgYkC
gYEA7/ux8NsUiF0dVFUIs6JJ6EM1lCAcJB2Tp3fI+bvlikRnLvQWt2PjwNL6P9Ia
97RHBNECS3obEZbfhPLwdIPEqJVxO2Kf+kZN5cJaevfuUjA202m0/idha27UZpK1
lS/PdlqivWfRpU7DRFa98YWjGyYrtKxeUNVbZ9mAcvC/cb8CAwEAAaOCAQUwggEB
MAkGA1UdEwQCMAAwLAYJYIZIAYb4QgENBB8WHU9wZW5TU0wgR2VuZXJhdGVkIENl
cnRpZmljYXRlMB0GA1UdDgQWBBQtkB8d+mqNO6st1Xs3SMlW6P58PjCBpgYDVR0j
BIGeMIGboYGNpIGKMIGHMQswCQYDVQQGEwJGUjEWMBQGA1UECAwNSWxlIGRlIEZy
YW5jZTEaMBgGA1UEBwwRTWFnbnkgbGVzIEhhbWVhdXgxETAPBgNVBAoMCEFXUyBU
ZWFtMRQwEgYDVQQDDAtQYXNjYWwgT2JyeTEbMBkGCSqGSIb3DQEJARYMYXdzQG9i
cnkubmV0ggkA2z+elzJ9lnowDQYJKoZIhvcNAQEFBQADgYEAXrHtNbydnNJdmYEZ
LiuaZ+T0NjyYskGmNl80+pav55hshgG09tLOULUk9h74xr++wnK3CFTJ74LBeMtk
4IfkHTfPYgmtuRpVzDN+E/sitdmvAnVG7DlzKpsIRLJPoPHWurbUS1/6oZ/F7FrB
UjvTqtuDYlppHS88n5Tzj8J95ck=
-----END CERTIFICATE-----
