Certificate:
    Data:
        Version: 1 (0x0)
        Serial Number: 43948 (0xabac)
        Signature Algorithm: sha256WithRSAEncryption
        Issuer: C=FR, ST=Ile de France, L=Magny les Hameaux, O=AWS Team, CN=Pascal Obry/emailAddress=aws@obry.net
        Validity
            Not Before: Feb 13 13:17:45 2021 GMT
            Not After : Feb 13 13:17:45 2022 GMT
        Subject: C=FR, ST=Ile de France, O=AWS Team, CN=Jean Dupont/emailAddress=jean.dupont@nowhere.com
        Subject Public Key Info:
            Public Key Algorithm: rsaEncryption
                RSA Public-Key: (2048 bit)
                Modulus:
                    00:c3:1d:56:a4:3d:cf:ca:f3:8b:5b:f9:66:56:4d:
                    ba:b8:c7:88:d5:2d:7c:59:e2:9e:df:6e:17:14:74:
                    b0:27:b7:83:bc:f0:b4:65:e7:0a:00:09:77:5f:63:
                    20:9d:99:6b:5f:21:58:77:be:cf:9d:bd:81:07:60:
                    fe:a2:8c:c7:8d:c0:e0:73:30:ca:2c:fb:90:f6:fd:
                    73:f3:27:d2:ad:3e:e6:9a:71:88:c6:27:0a:12:99:
                    02:a8:19:35:d3:94:d9:ac:56:d9:4d:b1:eb:2e:67:
                    39:b8:15:3a:68:3c:1c:37:18:4a:32:5a:3e:79:74:
                    83:3a:ab:78:55:db:05:3f:fd:f3:55:6d:24:e9:7c:
                    c0:60:bd:32:20:b6:f9:49:09:2b:30:b7:57:84:9e:
                    e7:05:fe:d9:2e:4c:5a:32:06:bc:cb:b0:8c:8f:5e:
                    5c:e8:4e:7c:ff:c3:10:8a:43:f4:c4:cf:1a:70:e0:
                    a3:89:94:58:de:05:bc:ae:e5:28:4d:51:b9:0a:3f:
                    79:ed:7a:4a:d3:14:8b:39:f9:8a:8b:14:b3:9b:4d:
                    b2:20:e2:27:00:c7:a4:e7:8d:66:85:7c:ae:ae:a1:
                    c9:51:01:ac:0e:ed:44:99:d1:bf:bd:f1:8b:55:f0:
                    5f:39:39:dd:a5:d4:0b:52:ab:94:a9:d3:80:a4:fc:
                    bc:2d
                Exponent: 65537 (0x10001)
    Signature Algorithm: sha256WithRSAEncryption
         a4:6c:0b:d6:c6:a2:08:1f:1f:db:67:dc:32:2b:a8:7d:4b:d4:
         54:3b:69:67:40:41:89:96:bb:76:96:62:2f:26:ec:f5:2c:17:
         d0:14:cd:31:45:2c:fb:5f:3a:77:32:df:09:b1:fc:ea:cb:99:
         ea:3a:82:3a:14:e4:69:a2:9a:d6:ad:e8:0f:5c:57:58:ad:0a:
         ce:34:5d:f0:e1:f0:97:db:35:8e:9a:9f:8b:be:60:e7:30:be:
         4b:d2:15:13:20:b0:29:94:ee:45:75:1b:e4:67:80:7e:c8:d3:
         a0:70:88:e4:51:67:2e:ef:2e:48:72:80:f4:d3:e0:29:bc:c2:
         d5:7c:20:46:43:00:b0:46:19:6a:e1:5f:44:c7:c7:0a:34:1d:
         8f:93:47:e1:7b:df:b5:c8:9f:1d:1e:78:f6:02:61:6a:b8:9a:
         bf:55:67:71:16:c1:46:b2:81:c5:a7:01:d6:51:44:0e:b0:19:
         90:e7:4b:0c:68:18:b1:b2:a3:84:08:d3:6a:83:3a:52:64:b8:
         7c:50:1d:44:73:66:aa:32:52:5b:f4:1c:d0:37:f5:29:e3:a1:
         a7:ae:ab:d7:c7:f6:c4:ee:43:66:c3:4f:bb:38:0c:6b:95:7f:
         83:f7:62:23:85:7f:8f:48:58:8a:2c:14:ce:cf:01:a4:4c:92:
         a3:f6:ca:1e
-----BEGIN CERTIFICATE-----
MIIDdDCCAlwCAwCrrDANBgkqhkiG9w0BAQsFADCBhzELMAkGA1UEBhMCRlIxFjAU
BgNVBAgMDUlsZSBkZSBGcmFuY2UxGjAYBgNVBAcMEU1hZ255IGxlcyBIYW1lYXV4
MREwDwYDVQQKDAhBV1MgVGVhbTEUMBIGA1UEAwwLUGFzY2FsIE9icnkxGzAZBgkq
hkiG9w0BCQEWDGF3c0BvYnJ5Lm5ldDAeFw0yMTAyMTMxMzE3NDVaFw0yMjAyMTMx
MzE3NDVaMHYxCzAJBgNVBAYTAkZSMRYwFAYDVQQIDA1JbGUgZGUgRnJhbmNlMREw
DwYDVQQKDAhBV1MgVGVhbTEUMBIGA1UEAwwLSmVhbiBEdXBvbnQxJjAkBgkqhkiG
9w0BCQEWF2plYW4uZHVwb250QG5vd2hlcmUuY29tMIIBIjANBgkqhkiG9w0BAQEF
AAOCAQ8AMIIBCgKCAQEAwx1WpD3PyvOLW/lmVk26uMeI1S18WeKe324XFHSwJ7eD
vPC0ZecKAAl3X2MgnZlrXyFYd77Pnb2BB2D+oozHjcDgczDKLPuQ9v1z8yfSrT7m
mnGIxicKEpkCqBk105TZrFbZTbHrLmc5uBU6aDwcNxhKMlo+eXSDOqt4VdsFP/3z
VW0k6XzAYL0yILb5SQkrMLdXhJ7nBf7ZLkxaMga8y7CMj15c6E58/8MQikP0xM8a
cOCjiZRY3gW8ruUoTVG5Cj957XpK0xSLOfmKixSzm02yIOInAMek541mhXyurqHJ
UQGsDu1EmdG/vfGLVfBfOTndpdQLUquUqdOApPy8LQIDAQABMA0GCSqGSIb3DQEB
CwUAA4IBAQCkbAvWxqIIHx/bZ9wyK6h9S9RUO2lnQEGJlrt2lmIvJuz1LBfQFM0x
RSz7Xzp3Mt8Jsfzqy5nqOoI6FORpoprWregPXFdYrQrONF3w4fCX2zWOmp+LvmDn
ML5L0hUTILAplO5FdRvkZ4B+yNOgcIjkUWcu7y5IcoD00+ApvMLVfCBGQwCwRhlq
4V9Ex8cKNB2Pk0fhe9+1yJ8dHnj2AmFquJq/VWdxFsFGsoHFpwHWUUQOsBmQ50sM
aBixsqOECNNqgzpSZLh8UB1Ec2aqMlJb9BzQN/Up46GnrqvXx/bE7kNmw0+7OAxr
lX+D92IjhX+PSFiKLBTOzwGkTJKj9soe
-----END CERTIFICATE-----
-----BEGIN RSA PRIVATE KEY-----
MIIEpAIBAAKCAQEAwx1WpD3PyvOLW/lmVk26uMeI1S18WeKe324XFHSwJ7eDvPC0
ZecKAAl3X2MgnZlrXyFYd77Pnb2BB2D+oozHjcDgczDKLPuQ9v1z8yfSrT7mmnGI
xicKEpkCqBk105TZrFbZTbHrLmc5uBU6aDwcNxhKMlo+eXSDOqt4VdsFP/3zVW0k
6XzAYL0yILb5SQkrMLdXhJ7nBf7ZLkxaMga8y7CMj15c6E58/8MQikP0xM8acOCj
iZRY3gW8ruUoTVG5Cj957XpK0xSLOfmKixSzm02yIOInAMek541mhXyurqHJUQGs
Du1EmdG/vfGLVfBfOTndpdQLUquUqdOApPy8LQIDAQABAoIBABSA9cTmtfpm44Mz
zzxMiM24MjnswL+VYAqswAInTQevckmdped7gwKD/CZq/VdycuUZVPmodJrn+jIz
UC72ylWsKioQu35EpXQ/KDsqOSp5jLQ4MB5apeVUbQILPCvS3ZkNu2I9yzAiKt+c
Y3nmrzRe+hUWhLAwvUWiFVA4ZvHVZ9u0JMhBz9YGhaLCQDE2K941tY1Mmo6pdN3P
vDiMePzPWF6qqK2AzPN1vlhsm1jeQs/aI2MZWLnXfM3BsOFm5szUU3bs0s23s21Q
detDxqlWplMBOatb8KyYjzJu/tpRySomjlcB00bbWJYtO1swHVHm58KLyyM/pXzZ
TsfTRgECgYEA9RPqC/OYF+VdNR+WsV5G/ATu2ViP4AhTOnXiH4liLnhv5ky1Jpaz
0rM95CBBGIuEohQuM/ZsykpSjWBwppzotWvCfmFPPnwN8JaH+Hhv33U4vQjIBrjW
YInghA/Xh1soVvRB+XN/jEncc694Iv1XobVopNq87zohx/vJcCazF4ECgYEAy89l
RJW+43EjtXBY7p0rCsQXKBUnwG33BXPPqz2ZrpRdVtMSNXUyWFz/n6Oz/akUglHh
yI313XwpltHpiTG85xTWaAEsW/pzNriPq7s6VcxzKZfXCy7dwDONJdoJxCQOmQ9n
xNZgXWcXxpdrtWyT0JVRETBcq1pqBxhR98Ty2q0CgYApHMgcbSbMi2uRZ9Utt/UM
ff9bcqHgIUVk/zWJuNBBn26WIbQZ3xoXdH4jcM26wlzjm6MMkIA7hzBGCzGaoaPg
G02rScOzZbgo7fetVPbfc5irDXgQuJ0t4LNLNCUhzcb8n0kaAagZ7qIOvhbXN8yl
kfsV/KPJNeVI2RI3wCY3AQKBgQC2gfceTrZMt+ERNhT9QFLt5iESbLdXM2HUSRv7
LUN0uTlIaeTRaCx4QndKPm8MxJ8wACEe1jkIaIpZm4n0qEyP5fIF2p8dko4fv3Aw
iY24jUfHREh2pDZBSiiob7L1KJDF8ayr8IkEuy/oT2pNYXiQfVXF/bfOXj26MsYc
CQqsVQKBgQDhHMTW4yDIxxiE/mQzbgD4AP3HCO+jIf5iRyPqxcXH6a9E+6Z6qsnK
gzhF1ENFEGrbUe7JRD1V7Asx+nY2d0XClERLMH+Ja2y8nB96UFDCIMTc51ud2q1R
sRW1muaHT64g3LQGI2BNNEkJ4tCOBs59CohoTgnQoYlo8MsUIABm2A==
-----END RSA PRIVATE KEY-----
