Certificate:
    Data:
        Version: 1 (0x0)
        Serial Number: 43946 (0xabaa)
        Signature Algorithm: sha256WithRSAEncryption
        Issuer: C=FR, ST=Ile de France, L=Magny les Hameaux, O=AWS Team, CN=Pascal Obry/emailAddress=aws@obry.net
        Validity
            Not Before: Feb 13 13:17:45 2021 GMT
            Not After : Feb 13 13:17:45 2022 GMT
        Subject: C=FR, ST=Ile de France, O=AWS Team, CN=localhost/emailAddress=aws@obry.net
        Subject Public Key Info:
            Public Key Algorithm: rsaEncryption
                RSA Public-Key: (2048 bit)
                Modulus:
                    00:d4:b4:44:48:51:48:6c:b4:9b:97:8f:80:b0:c8:
                    dd:07:73:e2:a0:32:5e:b9:33:ff:d7:61:ca:0a:6c:
                    53:88:5a:f8:c1:08:d0:ca:41:a7:0d:a7:b7:15:8f:
                    c4:0c:98:30:74:3f:86:13:1c:4b:29:68:c0:2f:31:
                    e5:d7:65:6b:f9:de:5b:8a:a8:8f:c7:88:98:be:ee:
                    c9:26:a4:63:ec:6b:ee:93:24:d2:bb:af:ed:c5:29:
                    35:12:10:25:12:01:c9:37:a6:21:d9:63:f7:2c:1a:
                    7f:f3:f1:40:37:d7:79:39:de:52:00:4b:dd:e6:dd:
                    2c:b3:f5:e5:8d:b6:7b:8f:3a:f3:0f:93:04:d6:e3:
                    85:71:fc:97:24:db:7e:76:11:47:f4:94:35:99:6f:
                    9c:34:7a:32:d0:20:e8:9e:29:b1:35:4b:f7:e9:96:
                    64:59:98:0d:fc:54:52:39:c7:3c:fa:01:0d:67:1d:
                    0b:51:6b:6c:12:dc:b3:aa:c3:61:d6:d4:a2:10:05:
                    ca:70:4e:57:28:34:3f:ea:38:28:e3:fc:7e:c2:bb:
                    74:a5:69:52:11:19:e2:5c:5a:02:f5:0b:8b:b0:17:
                    58:d6:8b:8e:b2:33:9c:32:2a:94:45:aa:4f:94:28:
                    0c:89:53:00:04:f1:35:26:fa:8f:d5:e7:97:27:94:
                    13:3f
                Exponent: 65537 (0x10001)
    Signature Algorithm: sha256WithRSAEncryption
         82:90:14:2f:6a:32:38:81:97:a5:15:2e:71:95:c6:86:4a:2b:
         6f:e8:ee:d8:f6:ba:7b:7c:83:c0:ce:c6:a2:d9:cc:5c:b8:55:
         69:52:99:57:2e:76:57:24:78:57:78:74:aa:6b:b3:46:44:ce:
         39:12:af:56:4e:b8:f9:5d:2e:05:2f:50:8a:22:f8:87:73:7c:
         d6:88:bd:b8:b8:20:0a:cd:f1:29:d2:ee:23:90:7e:79:6d:a4:
         4c:4d:b8:1f:2f:a4:ee:1d:40:0d:42:d6:63:b1:8e:33:85:86:
         dd:5c:72:85:0a:e4:9a:5a:c0:1c:f5:2c:05:f9:54:57:cc:9d:
         29:48:d6:1d:c6:a7:1b:e3:2f:7e:72:0b:06:60:17:8d:c4:ec:
         bd:dd:3f:ed:a7:9e:43:1a:e6:68:1c:5a:d5:47:f4:4f:39:d0:
         68:fa:d7:65:9d:39:ec:d9:d6:81:1a:2a:78:c0:25:51:04:2d:
         d0:e1:fc:5d:60:92:55:94:71:a7:bd:ae:8a:17:4b:a0:06:bc:
         35:03:3a:c4:80:63:f1:41:ab:ce:6f:b3:df:71:2b:85:d8:b7:
         97:00:6a:c8:c1:05:56:cb:2b:7a:c9:d7:17:3c:e0:8e:25:a8:
         66:54:02:8e:c4:8b:a2:fd:3b:1e:35:ae:24:a5:4f:95:49:fe:
         2c:45:8c:a8
-----BEGIN CERTIFICATE-----
MIIDZzCCAk8CAwCrqjANBgkqhkiG9w0BAQsFADCBhzELMAkGA1UEBhMCRlIxFjAU
BgNVBAgMDUlsZSBkZSBGcmFuY2UxGjAYBgNVBAcMEU1hZ255IGxlcyBIYW1lYXV4
MREwDwYDVQQKDAhBV1MgVGVhbTEUMBIGA1UEAwwLUGFzY2FsIE9icnkxGzAZBgkq
hkiG9w0BCQEWDGF3c0BvYnJ5Lm5ldDAeFw0yMTAyMTMxMzE3NDVaFw0yMjAyMTMx
MzE3NDVaMGkxCzAJBgNVBAYTAkZSMRYwFAYDVQQIDA1JbGUgZGUgRnJhbmNlMREw
DwYDVQQKDAhBV1MgVGVhbTESMBAGA1UEAwwJbG9jYWxob3N0MRswGQYJKoZIhvcN
AQkBFgxhd3NAb2JyeS5uZXQwggEiMA0GCSqGSIb3DQEBAQUAA4IBDwAwggEKAoIB
AQDUtERIUUhstJuXj4CwyN0Hc+KgMl65M//XYcoKbFOIWvjBCNDKQacNp7cVj8QM
mDB0P4YTHEspaMAvMeXXZWv53luKqI/HiJi+7skmpGPsa+6TJNK7r+3FKTUSECUS
Ack3piHZY/csGn/z8UA313k53lIAS93m3Syz9eWNtnuPOvMPkwTW44Vx/Jck2352
EUf0lDWZb5w0ejLQIOieKbE1S/fplmRZmA38VFI5xzz6AQ1nHQtRa2wS3LOqw2HW
1KIQBcpwTlcoND/qOCjj/H7Cu3SlaVIRGeJcWgL1C4uwF1jWi46yM5wyKpRFqk+U
KAyJUwAE8TUm+o/V55cnlBM/AgMBAAEwDQYJKoZIhvcNAQELBQADggEBAIKQFC9q
MjiBl6UVLnGVxoZKK2/o7tj2unt8g8DOxqLZzFy4VWlSmVcudlckeFd4dKprs0ZE
zjkSr1ZOuPldLgUvUIoi+IdzfNaIvbi4IArN8SnS7iOQfnltpExNuB8vpO4dQA1C
1mOxjjOFht1ccoUK5JpawBz1LAX5VFfMnSlI1h3GpxvjL35yCwZgF43E7L3dP+2n
nkMa5mgcWtVH9E850Gj612WdOezZ1oEaKnjAJVEELdDh/F1gklWUcae9rooXS6AG
vDUDOsSAY/FBq85vs99xK4XYt5cAasjBBVbLK3rJ1xc84I4lqGZUAo7Ei6L9Ox41
riSlT5VJ/ixFjKg=
-----END CERTIFICATE-----
