Certificate:
    Data:
        Version: 1 (0x0)
        Serial Number: 43947 (0xabab)
        Signature Algorithm: sha256WithRSAEncryption
        Issuer: C=FR, ST=Ile de France, L=Magny les Hameaux, O=AWS Team, CN=Pascal Obry/emailAddress=aws@obry.net
        Validity
            Not Before: Feb 13 13:17:45 2021 GMT
            Not After : Feb 13 13:17:45 2022 GMT
        Subject: C=FR, ST=Ile de France, O=AdaCore, OU=CRM, CN=localhost/emailAddress=aws-test@adacore.com
        Subject Public Key Info:
            Public Key Algorithm: rsaEncryption
                RSA Public-Key: (2048 bit)
                Modulus:
                    00:b0:79:26:be:c4:ba:22:40:1d:99:1a:6e:79:e4:
                    d4:da:e2:89:5d:7d:49:d8:9b:b9:ec:53:cc:44:8e:
                    15:33:39:9b:7c:43:6c:3a:99:a8:45:4c:15:c9:ba:
                    60:d5:23:de:b0:4a:c9:7c:dd:8a:9e:ba:cc:d7:64:
                    cd:1c:c2:c3:90:60:72:5d:31:bc:12:a3:32:c7:2c:
                    6a:4b:99:70:3e:bc:99:c6:48:f2:bf:41:70:2e:33:
                    dd:ce:49:3c:47:6a:e2:b5:2d:07:1c:62:4f:b5:83:
                    8a:61:7f:5f:7b:aa:94:7f:09:c1:f6:86:5b:d0:31:
                    5c:b4:72:a7:d8:50:da:02:46:6f:cb:bc:7e:1f:cc:
                    d6:af:be:60:20:5a:01:b5:15:75:5c:97:d7:6a:78:
                    9d:bf:ec:54:99:0f:da:d3:0d:3d:b4:a6:ee:65:d1:
                    9b:fe:b6:68:b2:89:74:a8:45:e6:6c:91:7d:a0:55:
                    a0:fa:f6:fc:59:98:3e:eb:e6:b0:b7:c9:de:e3:4d:
                    b2:e1:87:5e:8e:1a:5e:61:d2:5a:77:16:cb:08:11:
                    5b:d5:0a:f2:d5:4a:1a:35:7c:d9:56:f3:0d:08:8f:
                    63:f9:88:8e:b5:07:d0:90:c4:fa:e7:e7:87:0c:94:
                    a1:a1:b2:3c:9a:8d:16:e0:6b:fe:56:f4:4f:60:84:
                    2d:43
                Exponent: 65537 (0x10001)
    Signature Algorithm: sha256WithRSAEncryption
         14:e1:0c:8a:0c:a0:cc:e9:cd:79:db:c4:19:18:a2:aa:2a:74:
         56:d4:b5:cf:5f:20:19:f4:33:85:a1:3a:77:40:ca:0a:19:c9:
         61:ae:ef:c8:fe:5b:fc:90:38:6e:fe:d2:e4:50:98:b8:ef:64:
         b5:9b:fd:f8:00:b9:f6:49:5a:a0:cc:11:69:00:e7:ba:85:b1:
         97:7f:53:1c:d4:7d:bc:a5:7a:1b:f2:86:a5:f3:65:a4:cb:a0:
         15:4c:2a:97:b4:72:51:d8:76:22:00:12:b6:4a:2c:bf:d3:17:
         e2:2c:43:2a:1a:32:17:80:3f:fd:59:33:1c:f4:a4:1a:71:7d:
         c4:81:96:78:15:2e:4f:b6:2e:e8:57:59:ff:fe:4c:a3:c2:9e:
         5a:0b:4a:c8:a3:b3:cd:f6:21:da:03:b0:fc:f6:05:b8:d2:68:
         c1:23:c2:19:9c:f0:0c:08:a3:33:2a:a5:6e:f7:6b:0f:b1:be:
         e0:d5:b7:7b:08:8d:72:7f:49:75:09:4e:90:79:28:b0:f9:2e:
         b2:30:cf:28:3f:64:0c:33:57:d6:3a:7b:26:85:60:38:e1:22:
         aa:6d:45:6e:79:17:4d:ab:a8:49:8f:7f:f5:e6:e9:de:77:bb:
         89:36:ad:04:ba:2d:1e:ae:4a:30:45:ce:47:14:9d:11:c3:c3:
         57:3f:e0:88
-----BEGIN CERTIFICATE-----
MIIDfDCCAmQCAwCrqzANBgkqhkiG9w0BAQsFADCBhzELMAkGA1UEBhMCRlIxFjAU
BgNVBAgMDUlsZSBkZSBGcmFuY2UxGjAYBgNVBAcMEU1hZ255IGxlcyBIYW1lYXV4
MREwDwYDVQQKDAhBV1MgVGVhbTEUMBIGA1UEAwwLUGFzY2FsIE9icnkxGzAZBgkq
hkiG9w0BCQEWDGF3c0BvYnJ5Lm5ldDAeFw0yMTAyMTMxMzE3NDVaFw0yMjAyMTMx
MzE3NDVaMH4xCzAJBgNVBAYTAkZSMRYwFAYDVQQIDA1JbGUgZGUgRnJhbmNlMRAw
DgYDVQQKDAdBZGFDb3JlMQwwCgYDVQQLDANDUk0xEjAQBgNVBAMMCWxvY2FsaG9z
dDEjMCEGCSqGSIb3DQEJARYUYXdzLXRlc3RAYWRhY29yZS5jb20wggEiMA0GCSqG
SIb3DQEBAQUAA4IBDwAwggEKAoIBAQCweSa+xLoiQB2ZGm555NTa4oldfUnYm7ns
U8xEjhUzOZt8Q2w6mahFTBXJumDVI96wSsl83YqeuszXZM0cwsOQYHJdMbwSozLH
LGpLmXA+vJnGSPK/QXAuM93OSTxHauK1LQccYk+1g4phf197qpR/CcH2hlvQMVy0
cqfYUNoCRm/LvH4fzNavvmAgWgG1FXVcl9dqeJ2/7FSZD9rTDT20pu5l0Zv+tmiy
iXSoReZskX2gVaD69vxZmD7r5rC3yd7jTbLhh16OGl5h0lp3FssIEVvVCvLVSho1
fNlW8w0Ij2P5iI61B9CQxPrn54cMlKGhsjyajRbga/5W9E9ghC1DAgMBAAEwDQYJ
KoZIhvcNAQELBQADggEBABThDIoMoMzpzXnbxBkYoqoqdFbUtc9fIBn0M4WhOndA
ygoZyWGu78j+W/yQOG7+0uRQmLjvZLWb/fgAufZJWqDMEWkA57qFsZd/UxzUfbyl
ehvyhqXzZaTLoBVMKpe0clHYdiIAErZKLL/TF+IsQyoaMheAP/1ZMxz0pBpxfcSB
lngVLk+2LuhXWf/+TKPCnloLSsijs832IdoDsPz2BbjSaMEjwhmc8AwIozMqpW73
aw+xvuDVt3sIjXJ/SXUJTpB5KLD5LrIwzyg/ZAwzV9Y6eyaFYDjhIqptRW55F02r
qEmPf/Xm6d53u4k2rQS6LR6uSjBFzkcUnRHDw1c/4Ig=
-----END CERTIFICATE-----
