Certificate:
    Data:
        Version: 1 (0x0)
        Serial Number: 43946 (0xabaa)
        Signature Algorithm: sha256WithRSAEncryption
        Issuer: C=FR, ST=Ile de France, L=Magny les Hameaux, O=AWS Team, CN=Pascal Obry/emailAddress=aws@obry.net
        Validity
            Not Before: Apr  4 13:07:01 2021 GMT
            Not After : Apr  4 13:07:01 2022 GMT
        Subject: C=FR, ST=Ile de France, O=AWS Team, CN=localhost/emailAddress=aws@obry.net
        Subject Public Key Info:
            Public Key Algorithm: rsaEncryption
                RSA Public-Key: (2048 bit)
                Modulus:
                    00:e7:fc:db:1c:61:66:4d:9a:93:06:ac:d8:91:2f:
                    bf:b6:44:8e:25:ca:5c:ca:7e:f3:52:84:34:9e:ed:
                    8d:20:0e:9a:1a:49:16:36:7c:e0:e2:10:5c:1b:8e:
                    1e:60:65:b8:4c:fc:94:f2:1d:03:09:16:de:61:f1:
                    9d:51:1b:d5:02:a1:b3:ad:da:e9:98:45:43:94:93:
                    7d:31:9d:52:40:70:84:bf:66:cf:52:24:5a:65:83:
                    59:de:9c:7d:ad:4c:60:b1:d7:da:df:5c:70:6a:cc:
                    3a:e3:11:a8:97:db:ae:ce:60:13:29:f6:ad:c4:a7:
                    9a:c5:ec:f6:32:03:1a:80:52:27:37:c3:13:a2:e8:
                    fa:70:c0:8c:95:25:63:e6:fc:8f:21:de:fa:2e:1f:
                    71:a2:cc:3d:bb:2e:67:a4:83:1c:0b:9c:19:ae:92:
                    8d:6b:a6:d2:36:cb:36:42:75:9f:79:f0:db:af:9f:
                    03:d0:a4:bd:11:8c:5b:02:b0:8c:cb:84:e2:9d:14:
                    91:c6:3d:6d:38:0c:f3:02:3c:69:cb:f8:9a:5c:7a:
                    71:cc:3e:63:02:c9:2b:6a:fb:dc:3d:90:4c:62:33:
                    80:4a:e1:c2:2a:75:21:4a:20:b0:63:ec:97:13:11:
                    08:32:dc:2f:e9:1d:0b:67:93:aa:78:b9:bf:66:86:
                    5b:d1
                Exponent: 65537 (0x10001)
    Signature Algorithm: sha256WithRSAEncryption
         29:d9:db:09:a4:fe:30:83:e7:3b:ce:fc:ee:a3:56:10:45:de:
         16:21:9e:19:21:ef:5a:3e:65:d2:1a:54:74:bc:95:9c:54:30:
         67:25:e0:28:eb:07:83:8e:ef:46:c1:49:ed:a1:7c:9a:fb:51:
         dc:41:32:cb:80:2f:71:62:90:5b:4c:7c:1e:a7:00:8b:4b:46:
         e8:26:cc:04:6e:2a:ca:cd:8f:08:e5:17:d5:cf:f3:09:25:64:
         2f:4f:f6:2f:c9:94:32:35:50:39:eb:43:5c:98:e9:83:c4:a3:
         93:ae:82:32:cd:db:09:32:8d:f6:b5:17:1d:53:e6:a3:ed:56:
         ac:c4:09:ea:0e:04:47:94:ba:b3:63:7f:92:cd:da:de:b5:c8:
         dc:c6:ba:48:8f:d4:3a:51:c9:40:c5:e9:29:b6:1b:a3:c8:fc:
         fd:cb:e7:a8:b9:51:dd:6f:64:8b:df:d0:7f:27:f9:97:75:2d:
         64:7b:4a:4e:dc:78:33:6e:99:b9:19:e3:02:5f:b2:00:82:12:
         0b:59:f5:53:33:fe:03:7b:77:ac:4a:fc:30:15:45:03:d6:32:
         c5:c2:5a:a0:6b:2a:d9:dc:27:d5:eb:12:da:2e:52:44:3e:5d:
         13:20:da:49:02:e2:c4:40:5e:b0:aa:21:6b:4d:ec:f6:3f:df:
         31:98:55:90
-----BEGIN CERTIFICATE-----
MIIDZzCCAk8CAwCrqjANBgkqhkiG9w0BAQsFADCBhzELMAkGA1UEBhMCRlIxFjAU
BgNVBAgMDUlsZSBkZSBGcmFuY2UxGjAYBgNVBAcMEU1hZ255IGxlcyBIYW1lYXV4
MREwDwYDVQQKDAhBV1MgVGVhbTEUMBIGA1UEAwwLUGFzY2FsIE9icnkxGzAZBgkq
hkiG9w0BCQEWDGF3c0BvYnJ5Lm5ldDAeFw0yMTA0MDQxMzA3MDFaFw0yMjA0MDQx
MzA3MDFaMGkxCzAJBgNVBAYTAkZSMRYwFAYDVQQIDA1JbGUgZGUgRnJhbmNlMREw
DwYDVQQKDAhBV1MgVGVhbTESMBAGA1UEAwwJbG9jYWxob3N0MRswGQYJKoZIhvcN
AQkBFgxhd3NAb2JyeS5uZXQwggEiMA0GCSqGSIb3DQEBAQUAA4IBDwAwggEKAoIB
AQDn/NscYWZNmpMGrNiRL7+2RI4lylzKfvNShDSe7Y0gDpoaSRY2fODiEFwbjh5g
ZbhM/JTyHQMJFt5h8Z1RG9UCobOt2umYRUOUk30xnVJAcIS/Zs9SJFplg1nenH2t
TGCx19rfXHBqzDrjEaiX267OYBMp9q3Ep5rF7PYyAxqAUic3wxOi6PpwwIyVJWPm
/I8h3vouH3GizD27LmekgxwLnBmuko1rptI2yzZCdZ958NuvnwPQpL0RjFsCsIzL
hOKdFJHGPW04DPMCPGnL+JpcenHMPmMCyStq+9w9kExiM4BK4cIqdSFKILBj7JcT
EQgy3C/pHQtnk6p4ub9mhlvRAgMBAAEwDQYJKoZIhvcNAQELBQADggEBACnZ2wmk
/jCD5zvO/O6jVhBF3hYhnhkh71o+ZdIaVHS8lZxUMGcl4CjrB4OO70bBSe2hfJr7
UdxBMsuAL3FikFtMfB6nAItLRugmzARuKsrNjwjlF9XP8wklZC9P9i/JlDI1UDnr
Q1yY6YPEo5OugjLN2wkyjfa1Fx1T5qPtVqzECeoOBEeUurNjf5LN2t61yNzGukiP
1DpRyUDF6Sm2G6PI/P3L56i5Ud1vZIvf0H8n+Zd1LWR7Sk7ceDNumbkZ4wJfsgCC
EgtZ9VMz/gN7d6xK/DAVRQPWMsXCWqBrKtncJ9XrEtouUkQ+XRMg2kkC4sRAXrCq
IWtN7PY/3zGYVZA=
-----END CERTIFICATE-----
