Certificate:
    Data:
        Version: 1 (0x0)
        Serial Number: 43947 (0xabab)
        Signature Algorithm: sha256WithRSAEncryption
        Issuer: C=FR, ST=Ile de France, L=Magny les Hameaux, O=AWS Team, CN=Pascal Obry/emailAddress=aws@obry.net
        Validity
            Not Before: Apr  4 13:07:01 2021 GMT
            Not After : Apr  4 13:07:01 2022 GMT
        Subject: C=FR, ST=Ile de France, O=AdaCore, OU=CRM, CN=localhost/emailAddress=aws-test@adacore.com
        Subject Public Key Info:
            Public Key Algorithm: rsaEncryption
                RSA Public-Key: (2048 bit)
                Modulus:
                    00:ae:f2:7a:41:1e:db:b8:dd:c2:10:a9:42:7f:aa:
                    3b:c8:c5:a1:13:74:00:60:fc:13:60:3f:b6:92:3c:
                    23:7c:66:33:92:b6:be:e5:2f:8c:3b:91:1c:3d:c2:
                    8e:0d:3a:bc:f0:e6:f6:aa:9f:34:c2:c6:7f:c4:ab:
                    24:0f:d2:17:33:4c:30:cf:55:3f:63:c7:da:7f:c9:
                    2e:7f:0f:01:ba:ca:bc:f0:81:09:fd:ee:aa:5d:7a:
                    23:71:4f:f0:eb:a9:9c:e0:ff:5b:0a:8b:ee:14:bf:
                    50:b7:08:d3:71:3b:d6:f2:b6:52:13:7c:66:c1:ce:
                    81:6a:13:1c:3a:47:6e:8d:fc:46:81:3f:b0:0b:b0:
                    dc:1c:fe:80:b4:80:d0:fb:df:d5:83:3a:8d:b2:8c:
                    0f:13:1c:52:85:a3:be:17:ff:54:1a:6b:9e:b9:b8:
                    75:ab:53:c4:c6:81:10:13:6e:41:37:d8:64:f6:c7:
                    0e:ca:0e:31:8b:20:04:74:e9:1c:28:5b:0d:bc:46:
                    31:97:35:51:61:14:b2:1f:9c:aa:5f:69:e5:28:c5:
                    81:3a:c7:94:53:d5:7e:d4:a6:b2:bd:f4:be:cc:68:
                    a8:32:a0:8e:62:37:c8:0d:10:3d:8e:95:4b:c3:0c:
                    c3:f6:75:43:7d:e7:52:01:0d:e5:af:07:e7:6a:dd:
                    f9:27
                Exponent: 65537 (0x10001)
    Signature Algorithm: sha256WithRSAEncryption
         72:89:80:01:34:5c:3b:97:69:74:e1:12:cc:1c:4b:1c:70:e9:
         eb:d0:b5:cc:9d:de:91:c4:a7:1c:6d:44:55:85:35:c2:cb:57:
         67:35:39:52:3f:88:30:d5:32:43:37:ef:2a:cc:45:3e:70:6b:
         c0:fe:59:4d:f2:cb:43:08:f8:48:94:a1:25:5c:e7:32:37:29:
         e8:d9:0f:d8:10:9e:11:9c:34:53:c2:42:92:c4:b4:0e:9a:cf:
         fb:70:fa:8b:e4:81:68:0d:97:f5:ff:90:a7:0b:37:90:b9:b7:
         eb:20:28:01:6e:da:40:86:d8:50:ee:5e:7c:8b:4c:7f:4d:b3:
         4a:7e:b7:9b:22:c1:73:e7:9c:cf:ad:db:f5:cf:ab:26:55:1e:
         aa:93:86:6f:c1:95:79:79:b7:77:cd:ab:55:b0:01:c1:14:50:
         ca:3b:d0:ac:0c:e0:ad:84:71:77:50:06:62:94:73:0d:06:3e:
         28:62:fb:aa:36:27:2c:1b:de:f2:a9:43:1a:5c:cf:28:2c:a4:
         7d:0e:f3:13:39:81:25:77:72:1b:8f:3c:6f:c0:84:4f:13:92:
         65:f5:a5:f8:36:7a:ec:03:c2:16:0f:67:f2:87:40:4d:88:2a:
         83:81:fa:cf:1d:de:05:e8:ad:1b:34:f2:de:a2:3b:86:b6:50:
         20:fe:37:86
-----BEGIN CERTIFICATE-----
MIIDfDCCAmQCAwCrqzANBgkqhkiG9w0BAQsFADCBhzELMAkGA1UEBhMCRlIxFjAU
BgNVBAgMDUlsZSBkZSBGcmFuY2UxGjAYBgNVBAcMEU1hZ255IGxlcyBIYW1lYXV4
MREwDwYDVQQKDAhBV1MgVGVhbTEUMBIGA1UEAwwLUGFzY2FsIE9icnkxGzAZBgkq
hkiG9w0BCQEWDGF3c0BvYnJ5Lm5ldDAeFw0yMTA0MDQxMzA3MDFaFw0yMjA0MDQx
MzA3MDFaMH4xCzAJBgNVBAYTAkZSMRYwFAYDVQQIDA1JbGUgZGUgRnJhbmNlMRAw
DgYDVQQKDAdBZGFDb3JlMQwwCgYDVQQLDANDUk0xEjAQBgNVBAMMCWxvY2FsaG9z
dDEjMCEGCSqGSIb3DQEJARYUYXdzLXRlc3RAYWRhY29yZS5jb20wggEiMA0GCSqG
SIb3DQEBAQUAA4IBDwAwggEKAoIBAQCu8npBHtu43cIQqUJ/qjvIxaETdABg/BNg
P7aSPCN8ZjOStr7lL4w7kRw9wo4NOrzw5vaqnzTCxn/EqyQP0hczTDDPVT9jx9p/
yS5/DwG6yrzwgQn97qpdeiNxT/DrqZzg/1sKi+4Uv1C3CNNxO9bytlITfGbBzoFq
Exw6R26N/EaBP7ALsNwc/oC0gND739WDOo2yjA8THFKFo74X/1Qaa565uHWrU8TG
gRATbkE32GT2xw7KDjGLIAR06RwoWw28RjGXNVFhFLIfnKpfaeUoxYE6x5RT1X7U
prK99L7MaKgyoI5iN8gNED2OlUvDDMP2dUN951IBDeWvB+dq3fknAgMBAAEwDQYJ
KoZIhvcNAQELBQADggEBAHKJgAE0XDuXaXThEswcSxxw6evQtcyd3pHEpxxtRFWF
NcLLV2c1OVI/iDDVMkM37yrMRT5wa8D+WU3yy0MI+EiUoSVc5zI3KejZD9gQnhGc
NFPCQpLEtA6az/tw+ovkgWgNl/X/kKcLN5C5t+sgKAFu2kCG2FDuXnyLTH9Ns0p+
t5siwXPnnM+t2/XPqyZVHqqThm/BlXl5t3fNq1WwAcEUUMo70KwM4K2EcXdQBmKU
cw0GPihi+6o2Jywb3vKpQxpczygspH0O8xM5gSV3chuPPG/AhE8TkmX1pfg2euwD
whYPZ/KHQE2IKoOB+s8d3gXorRs08t6iO4a2UCD+N4Y=
-----END CERTIFICATE-----
