Certificate:
    Data:
        Version: 3 (0x2)
        Serial Number: 43947 (0xabab)
    Signature Algorithm: sha1WithRSAEncryption
        Issuer: C=FR, ST=Ile de France, L=Magny les Hameaux, O=AWS Team, CN=Pascal Obry/emailAddress=aws@obry.net
        Validity
            Not Before: Aug  6 16:19:08 2012 GMT
            Not After : Aug  1 16:19:08 2032 GMT
        Subject: C=FR, ST=Ile de France, O=AWS Team, CN=Jean Dupont/emailAddress=jean.dupont@nowhere.com
        Subject Public Key Info:
            Public Key Algorithm: rsaEncryption
                Public-Key: (1024 bit)
                Modulus:
                    00:c9:a2:89:40:2f:15:fe:97:53:4d:b5:5e:b8:bb:
                    18:09:71:5e:9c:56:60:5c:f6:2b:fb:d0:ac:2b:0f:
                    61:d6:af:e8:47:34:fa:f3:72:3f:e9:07:38:08:34:
                    3c:f4:2a:5b:1d:78:28:42:12:6a:0b:bf:c2:4a:6f:
                    74:af:1c:8b:7e:be:52:78:e4:6d:7d:63:c0:60:3d:
                    a2:82:53:02:b4:9b:83:9e:6e:cf:81:a2:8d:90:cf:
                    b0:4c:e7:ea:fa:da:8b:96:2e:2d:39:b6:c8:07:f2:
                    88:74:59:45:73:c0:a5:0a:7d:3c:69:94:41:0d:5f:
                    27:53:8d:4f:bf:a1:94:15:8d
                Exponent: 65537 (0x10001)
        X509v3 extensions:
            X509v3 Basic Constraints: 
                CA:FALSE
            Netscape Comment: 
                OpenSSL Generated Certificate
            X509v3 Subject Key Identifier: 
                34:7D:61:BD:52:CB:B6:6E:94:EA:99:B4:04:73:E9:DB:B6:80:79:3D
            X509v3 Authority Key Identifier: 
                DirName:/C=FR/ST=Ile de France/L=Magny les Hameaux/O=AWS Team/CN=Pascal Obry/emailAddress=aws@obry.net
                serial:D7:45:4C:42:A0:E5:76:22

    Signature Algorithm: sha1WithRSAEncryption
         49:7e:77:27:7b:f6:c7:2c:66:36:31:28:65:29:f6:51:5a:91:
         34:20:69:2c:36:40:7b:b5:9c:df:79:6b:7c:ee:d0:da:62:ee:
         52:86:38:02:38:2a:10:49:4b:48:d1:bb:5c:59:1e:ef:7c:1e:
         55:8e:d8:1e:fe:6f:31:84:c1:50:79:7b:6d:55:5a:05:a3:35:
         a2:7e:92:34:75:ef:ca:23:54:75:ab:ed:2f:e6:b4:37:e4:15:
         f5:37:c5:6c:f0:6e:77:98:ea:49:bb:8e:58:22:5c:8c:9b:99:
         d0:fe:78:71:57:9a:a8:d4:af:26:97:fd:7a:0b:54:e8:74:38:
         98:23
-----BEGIN CERTIFICATE-----
MIIDfTCCAuagAwIBAgIDAKurMA0GCSqGSIb3DQEBBQUAMIGHMQswCQYDVQQGEwJG
UjEWMBQGA1UECAwNSWxlIGRlIEZyYW5jZTEaMBgGA1UEBwwRTWFnbnkgbGVzIEhh
bWVhdXgxETAPBgNVBAoMCEFXUyBUZWFtMRQwEgYDVQQDDAtQYXNjYWwgT2JyeTEb
MBkGCSqGSIb3DQEJARYMYXdzQG9icnkubmV0MB4XDTEyMDgwNjE2MTkwOFoXDTMy
MDgwMTE2MTkwOFowdjELMAkGA1UEBhMCRlIxFjAUBgNVBAgMDUlsZSBkZSBGcmFu
Y2UxETAPBgNVBAoMCEFXUyBUZWFtMRQwEgYDVQQDDAtKZWFuIER1cG9udDEmMCQG
CSqGSIb3DQEJARYXamVhbi5kdXBvbnRAbm93aGVyZS5jb20wgZ8wDQYJKoZIhvcN
AQEBBQADgY0AMIGJAoGBAMmiiUAvFf6XU021Xri7GAlxXpxWYFz2K/vQrCsPYdav
6Ec0+vNyP+kHOAg0PPQqWx14KEISagu/wkpvdK8ci36+UnjkbX1jwGA9ooJTArSb
g55uz4GijZDPsEzn6vrai5YuLTm2yAfyiHRZRXPApQp9PGmUQQ1fJ1ONT7+hlBWN
AgMBAAGjggEFMIIBATAJBgNVHRMEAjAAMCwGCWCGSAGG+EIBDQQfFh1PcGVuU1NM
IEdlbmVyYXRlZCBDZXJ0aWZpY2F0ZTAdBgNVHQ4EFgQUNH1hvVLLtm6U6pm0BHPp
27aAeT0wgaYGA1UdIwSBnjCBm6GBjaSBijCBhzELMAkGA1UEBhMCRlIxFjAUBgNV
BAgMDUlsZSBkZSBGcmFuY2UxGjAYBgNVBAcMEU1hZ255IGxlcyBIYW1lYXV4MREw
DwYDVQQKDAhBV1MgVGVhbTEUMBIGA1UEAwwLUGFzY2FsIE9icnkxGzAZBgkqhkiG
9w0BCQEWDGF3c0BvYnJ5Lm5ldIIJANdFTEKg5XYiMA0GCSqGSIb3DQEBBQUAA4GB
AEl+dyd79scsZjYxKGUp9lFakTQgaSw2QHu1nN95a3zu0Npi7lKGOAI4KhBJS0jR
u1xZHu98HlWO2B7+bzGEwVB5e21VWgWjNaJ+kjR178ojVHWr7S/mtDfkFfU3xWzw
bneY6km7jlgiXIybmdD+eHFXmqjUryaX/XoLVOh0OJgj
-----END CERTIFICATE-----
-----BEGIN RSA PRIVATE KEY-----
MIICXAIBAAKBgQDJoolALxX+l1NNtV64uxgJcV6cVmBc9iv70KwrD2HWr+hHNPrz
cj/pBzgINDz0KlsdeChCEmoLv8JKb3SvHIt+vlJ45G19Y8BgPaKCUwK0m4Oebs+B
oo2Qz7BM5+r62ouWLi05tsgH8oh0WUVzwKUKfTxplEENXydTjU+/oZQVjQIDAQAB
AoGAezX95qGfMA5qUg7lTb7OBl8ncCL8CXJIGD1AJ6PjpluhdXmza3XCBfRqUeER
6iXDvbNB7nXwJTPNVszaoXKw7fDL1lcgDCdiEqEV8t123VCIKrQPud6iGuUTg8lD
7MehudUGiQhK3zI+iAxi7jqevoxyl7QE7Mn6eoyVT0aSAGUCQQDx0/yUQOW7kUzj
F6bU75yd8d18ImnDqZquHO9oPKc1Jsq3Ex5yCyP0eDfJH3wAytWNxsbnBV7vgeRr
LKjHwkJjAkEA1XONtrn15GzdhYJPml6VgskmRhoNvHx7nI7g6rzh1KTOY2D5KMcY
pYkcOvs3nqF6j6eFf1moMPdWc5jyz47TTwJAO6Ib2e8694r4G9P8Ruwjgetfw7m0
vRQ42ZC3FMxIK1o6iPTFADhxEFsI3qbN7GAYU1LeP5/ablNooWks4b2sowJBAMex
qNZX2e1P0Ft0k4ankJbgGzegblN13quUnGXgOiMX4KLm+ZOl2LAdu1SO7PUyu5gk
MOf4+Dp/W9kgMaHvTE8CQDCa4xiEbM9ukOY8I82ShD9GKwc79FKOCGaxxALJ6w/d
OzY27w0NLw/9EfZQ8f9fZObkn6Xf0PWW5qtZMF7ZqKM=
-----END RSA PRIVATE KEY-----
