Certificate:
    Data:
        Version: 1 (0x0)
        Serial Number: 43950 (0xabae)
        Signature Algorithm: sha256WithRSAEncryption
        Issuer: C=FR, ST=Ile de France, L=Magny les Hameaux, O=AWS Team, CN=Pascal Obry/emailAddress=aws@obry.net
        Validity
            Not Before: Apr  4 13:07:01 2021 GMT
            Not After : Apr  2 13:07:01 2031 GMT
        Subject: C=FR, ST=Ile de France, O=AWS Team, CN=Jean Dupont/emailAddress=jean.dupont@nowhere.com
        Subject Public Key Info:
            Public Key Algorithm: rsaEncryption
                RSA Public-Key: (2048 bit)
                Modulus:
                    00:ce:47:3a:a8:0f:34:ad:a5:d3:f0:66:a8:15:71:
                    38:db:8e:53:6d:93:9a:f3:e9:7f:03:25:33:45:3f:
                    83:ef:26:4c:78:f7:95:a5:3a:9c:fb:84:25:f0:da:
                    85:98:44:8c:fe:27:b0:8c:82:fe:83:6b:91:24:f9:
                    c2:6c:1b:b9:a6:e4:7b:6d:8a:26:2a:94:f2:c0:14:
                    98:6e:3d:81:57:99:75:5b:5e:8f:bc:33:35:c7:83:
                    f5:a3:25:3e:11:57:11:c1:6c:d6:9a:31:b8:9e:e6:
                    88:b0:ff:cc:b4:93:bc:f5:fa:02:29:a3:ae:e8:dd:
                    0d:de:ff:e9:af:c1:f6:8a:c2:5b:72:ae:12:bc:9e:
                    36:6b:28:b8:13:1f:66:70:ec:f6:a9:a8:a2:b8:28:
                    a0:2c:98:63:fb:f8:92:66:43:b0:3d:7d:03:35:b1:
                    8f:79:9f:f1:65:28:be:65:3f:c3:7f:9a:09:d0:c4:
                    b3:f6:6a:08:55:4b:22:60:a8:84:59:8c:2c:32:8e:
                    10:3e:b2:9f:f2:e8:a8:e1:37:88:77:24:9d:6d:63:
                    10:60:4c:39:99:d6:73:c5:06:f8:69:65:08:a1:1b:
                    7c:dd:5f:b1:8f:1f:0a:cf:11:27:35:32:04:68:a3:
                    0d:53:00:cb:5f:35:d4:19:e6:71:22:77:57:cb:93:
                    ea:d1
                Exponent: 65537 (0x10001)
    Signature Algorithm: sha256WithRSAEncryption
         1e:a0:d9:8b:47:86:ee:3b:a4:a1:b4:64:01:b5:eb:a1:d1:6d:
         53:a6:75:81:bb:54:cc:7a:86:d1:13:1c:f5:2d:83:11:14:b9:
         35:3a:6c:95:e1:44:a6:fe:3a:d7:29:c1:d5:ee:bf:e7:28:6e:
         f7:b5:a5:77:99:4e:7b:f0:29:4f:d3:d1:c1:eb:c6:98:6b:e3:
         74:bf:76:bc:a9:4e:19:9c:fa:09:86:df:0b:40:a6:a2:7c:43:
         f3:77:db:6f:e8:62:91:50:71:cf:a6:f5:2f:69:19:0c:e1:8f:
         cd:d6:92:ab:e5:d9:f0:77:e5:8d:40:40:27:f8:ec:76:87:fd:
         06:2a:c9:a0:8b:39:73:4f:f2:d9:4b:b9:cb:fe:4e:dd:0f:80:
         bc:cb:64:14:f9:57:54:43:d7:6f:a5:7a:c3:04:ac:9a:21:d5:
         69:1c:53:b3:97:9d:c6:af:42:4d:fe:02:be:c6:25:a1:3e:14:
         17:1f:c3:e9:30:da:17:25:bf:f3:8f:c5:25:2f:9e:44:a9:8f:
         d8:88:01:d5:3b:e0:c4:ec:f0:9f:bb:80:00:fa:6d:9d:50:e8:
         1d:38:a0:73:33:b0:27:36:1f:ec:1b:0d:ca:0a:58:74:eb:2e:
         82:df:7e:49:23:c1:1c:32:95:cd:b0:93:22:21:e6:63:eb:49:
         2f:68:bd:5f
-----BEGIN CERTIFICATE-----
MIIDdDCCAlwCAwCrrjANBgkqhkiG9w0BAQsFADCBhzELMAkGA1UEBhMCRlIxFjAU
BgNVBAgMDUlsZSBkZSBGcmFuY2UxGjAYBgNVBAcMEU1hZ255IGxlcyBIYW1lYXV4
MREwDwYDVQQKDAhBV1MgVGVhbTEUMBIGA1UEAwwLUGFzY2FsIE9icnkxGzAZBgkq
hkiG9w0BCQEWDGF3c0BvYnJ5Lm5ldDAeFw0yMTA0MDQxMzA3MDFaFw0zMTA0MDIx
MzA3MDFaMHYxCzAJBgNVBAYTAkZSMRYwFAYDVQQIDA1JbGUgZGUgRnJhbmNlMREw
DwYDVQQKDAhBV1MgVGVhbTEUMBIGA1UEAwwLSmVhbiBEdXBvbnQxJjAkBgkqhkiG
9w0BCQEWF2plYW4uZHVwb250QG5vd2hlcmUuY29tMIIBIjANBgkqhkiG9w0BAQEF
AAOCAQ8AMIIBCgKCAQEAzkc6qA80raXT8GaoFXE4245TbZOa8+l/AyUzRT+D7yZM
ePeVpTqc+4Ql8NqFmESM/iewjIL+g2uRJPnCbBu5puR7bYomKpTywBSYbj2BV5l1
W16PvDM1x4P1oyU+EVcRwWzWmjG4nuaIsP/MtJO89foCKaOu6N0N3v/pr8H2isJb
cq4SvJ42ayi4Ex9mcOz2qaiiuCigLJhj+/iSZkOwPX0DNbGPeZ/xZSi+ZT/Df5oJ
0MSz9moIVUsiYKiEWYwsMo4QPrKf8uio4TeIdySdbWMQYEw5mdZzxQb4aWUIoRt8
3V+xjx8KzxEnNTIEaKMNUwDLXzXUGeZxIndXy5Pq0QIDAQABMA0GCSqGSIb3DQEB
CwUAA4IBAQAeoNmLR4buO6ShtGQBteuh0W1TpnWBu1TMeobRExz1LYMRFLk1OmyV
4USm/jrXKcHV7r/nKG73taV3mU578ClP09HB68aYa+N0v3a8qU4ZnPoJht8LQKai
fEPzd9tv6GKRUHHPpvUvaRkM4Y/N1pKr5dnwd+WNQEAn+Ox2h/0GKsmgizlzT/LZ
S7nL/k7dD4C8y2QU+VdUQ9dvpXrDBKyaIdVpHFOzl53Gr0JN/gK+xiWhPhQXH8Pp
MNoXJb/zj8UlL55EqY/YiAHVO+DE7PCfu4AA+m2dUOgdOKBzM7AnNh/sGw3KClh0
6y6C335JI8EcMpXNsJMiIeZj60kvaL1f
-----END CERTIFICATE-----
-----BEGIN RSA PRIVATE KEY-----
MIIEpQIBAAKCAQEAzkc6qA80raXT8GaoFXE4245TbZOa8+l/AyUzRT+D7yZMePeV
pTqc+4Ql8NqFmESM/iewjIL+g2uRJPnCbBu5puR7bYomKpTywBSYbj2BV5l1W16P
vDM1x4P1oyU+EVcRwWzWmjG4nuaIsP/MtJO89foCKaOu6N0N3v/pr8H2isJbcq4S
vJ42ayi4Ex9mcOz2qaiiuCigLJhj+/iSZkOwPX0DNbGPeZ/xZSi+ZT/Df5oJ0MSz
9moIVUsiYKiEWYwsMo4QPrKf8uio4TeIdySdbWMQYEw5mdZzxQb4aWUIoRt83V+x
jx8KzxEnNTIEaKMNUwDLXzXUGeZxIndXy5Pq0QIDAQABAoIBAQDJu7VsuHo/PMb5
+5t0ZOdDKX0D0/AdjIRPsijjF0vTLXRqdU+faKQwAjwMwdkXYis1P+GUeWOpaSBo
te3jRnYY9qiTJyFOUZ7aJQox/eqpngW81szhNH/q4G3xILIDyVAvB18VK30vwat6
1p//FeEd+mP1DwQ27kDrjwGehqWzasBHSmSdUhKbTVkLlz9NtyC6noL0iGmTZd+v
6AO8r/4BAnmy7XdT1ZBEtwqlrSHTsGMVHVNqHmm90Gp7kJ+wUzZ7JaS/Dz14IXgA
eA2B5yVYIVF2YR0fm3s5cj3ppe1iSDKWFx1i9T0cnpExXYu8APHT94kK7fKCWdZ2
BXzd3xdBAoGBAPNa/5vaMO5NzIrRGWCKOVyRAgNrFZjx1s5xNTHvqIurTU9V3qDK
kGKFLyY4Y1e7k+A+DFYvdEl4R1DAecYjayZBLhQyMnYT3sLuWLQJwovC+pauv/ap
FB12iM65NW5l9lrT3apeUQgIdvgL4zzaG/DxpThCWCZERXrg/RLyN4ipAoGBANj/
C+7V16jPBaczcYwXIB9aBuNZmkd+Li+dcwDGifkZI+vBaFF5nm4Z9iNUhTCQgIiS
tOGalcogRcYZOez93f1JOALWDklzrc20Re6cAjs1S67OOli0uVS1j6n6bkJgu2tK
H4uYDVzNMakuKWbEZxwrQT+2S4aSAncKi68gDOHpAoGAWAEMdrwM/eC8m2bKmpLh
84utArdy9ABhAf8GkaxtczTbnFkdTWBznm0zg8rYgh2feHR32aMHlpockCNK5lBg
q1De7QbKINFGuY+gHFt7Mzerj1paqUSztYPsLXXk0Kumz2nWu4moHBOTklgaMSNe
/18jtJipcA04YxuB6ZwWYSECgYEAu5Zoa3TjtWQaX/uh6lhHhbLfB4V7UNis9q6n
L4Fy3yuzmOge1WhM5KN+2/YCGgShiO9CfVGUsiKKDwHZyJ2CXacBS7peqXLeSljQ
p8CoUST2o0xWtj6thKRcaLY8wRc8jjiK4rN0wcgFaVqlodihxoFCK+Dck53/kYdF
UARl/pkCgYEAtKdLEFvj0koi+gQXdpGRBe+EjA1xHGX7EFF6EX/A3kpg6A/g/V8d
+Qam1x+RClttyw+5dB5voFY6qufSieEEnyTRDWDv1Zxx54MEWgR+knh/VVgrEgpb
WAFnOL9pJ9hfJSaXp3R9yYvQ7JiuoECKNpVtWABKUjoHUb3oFDnx+Pk=
-----END RSA PRIVATE KEY-----
