Certificate:
    Data:
        Version: 1 (0x0)
        Serial Number: 1 (0x1)
        Signature Algorithm: sha256WithRSAEncryption
        Issuer: C=FR, ST=Ile de France, O=AWS Team, CN=localhost/emailAddress=aws@obry.net
        Validity
            Not Before: Feb 12 09:04:57 2021 GMT
            Not After : Feb 10 09:04:57 2031 GMT
        Subject: C=FR, ST=Ile de France, O=AWS Team, CN=localhost/emailAddress=aws@obry.net
        Subject Public Key Info:
            Public Key Algorithm: rsaEncryption
                RSA Public-Key: (2048 bit)
                Modulus:
                    00:de:ad:8e:40:c9:9b:e7:ca:1a:cb:ee:fd:7b:bc:
                    2e:10:b2:13:6a:bc:8c:88:f3:be:ec:7a:ec:a0:4c:
                    7e:90:04:82:e3:4c:25:76:1a:cf:23:1a:2e:73:49:
                    3d:a9:6c:c1:01:17:13:0b:88:d0:da:64:25:a4:f8:
                    bf:93:a6:43:a5:0f:dc:ed:20:44:88:f4:c8:8c:bd:
                    8b:45:db:c6:93:13:55:cf:f7:53:3e:19:29:cf:44:
                    16:87:e8:89:f6:0e:d7:15:07:a6:a6:57:c0:58:83:
                    42:4a:ef:72:a4:b1:24:d7:ac:ce:74:c4:e1:84:37:
                    1c:00:f8:69:fc:da:66:f4:4f:20:6a:86:ad:94:bd:
                    02:a6:8c:19:f2:a6:fe:b7:23:91:a3:2e:98:58:ca:
                    2d:b0:8a:9a:68:ac:04:71:1b:21:35:8d:45:79:a0:
                    84:87:7a:92:ab:dc:3e:b4:dd:9a:06:ab:42:26:6a:
                    e9:70:a6:26:1a:34:29:81:bc:ee:8c:99:7a:c5:43:
                    49:9c:35:94:7f:8f:cb:cb:f6:40:54:f7:3a:07:a9:
                    2e:0d:f0:a0:69:57:32:f2:cb:2c:3f:c5:82:17:f9:
                    74:63:95:29:e8:0c:11:5f:34:b7:f5:a7:c5:e6:66:
                    c4:76:07:ba:8d:03:cc:63:ec:22:6c:b8:9a:30:c4:
                    de:ff
                Exponent: 65537 (0x10001)
    Signature Algorithm: sha256WithRSAEncryption
         45:b9:3d:8e:ef:58:1a:bd:44:15:5c:2a:2f:5a:77:cf:e7:d1:
         bf:06:2f:3f:54:ff:00:bf:26:9c:52:a7:e7:41:35:fa:12:10:
         41:7b:29:12:c5:18:8b:47:95:39:01:39:ea:17:79:1a:fc:3b:
         de:a1:12:9a:9d:a0:e7:8d:d8:5a:bb:90:2c:ad:48:8a:fe:39:
         f9:d4:78:18:27:18:6c:e0:93:68:e6:d4:e2:f0:6a:e8:4b:03:
         5e:b5:85:84:f7:0c:d3:86:b6:d3:d5:b2:9b:19:01:fd:2d:81:
         26:37:86:55:8b:04:ed:d8:ca:43:b3:07:b7:d1:f4:f5:e6:68:
         4d:9e:11:93:a2:a2:91:1c:b4:5d:b4:d3:c1:fa:15:e7:45:62:
         60:9c:ee:fa:87:a7:a7:d2:83:c1:7a:e9:75:36:d5:65:90:52:
         43:cd:3d:63:52:70:3c:27:04:2e:eb:72:58:1a:06:8b:6a:5a:
         1b:70:dd:24:bf:ad:1a:51:be:08:de:f4:4f:91:98:bf:25:fe:
         15:c5:3a:99:c3:b2:0a:05:e7:be:74:a3:72:08:57:68:92:50:
         ac:6a:ec:b7:cf:1f:15:05:61:69:73:41:05:5e:7a:a7:58:99:
         41:3f:3d:af:a5:36:9b:43:ba:27:b2:cc:a6:a9:c8:51:38:2d:
         72:6f:b7:af
-----BEGIN CERTIFICATE-----
MIIDRjCCAi4CAQEwDQYJKoZIhvcNAQELBQAwaTELMAkGA1UEBhMCRlIxFjAUBgNV
BAgMDUlsZSBkZSBGcmFuY2UxETAPBgNVBAoMCEFXUyBUZWFtMRIwEAYDVQQDDAls
b2NhbGhvc3QxGzAZBgkqhkiG9w0BCQEWDGF3c0BvYnJ5Lm5ldDAeFw0yMTAyMTIw
OTA0NTdaFw0zMTAyMTAwOTA0NTdaMGkxCzAJBgNVBAYTAkZSMRYwFAYDVQQIDA1J
bGUgZGUgRnJhbmNlMREwDwYDVQQKDAhBV1MgVGVhbTESMBAGA1UEAwwJbG9jYWxo
b3N0MRswGQYJKoZIhvcNAQkBFgxhd3NAb2JyeS5uZXQwggEiMA0GCSqGSIb3DQEB
AQUAA4IBDwAwggEKAoIBAQDerY5AyZvnyhrL7v17vC4QshNqvIyI877seuygTH6Q
BILjTCV2Gs8jGi5zST2pbMEBFxMLiNDaZCWk+L+TpkOlD9ztIESI9MiMvYtF28aT
E1XP91M+GSnPRBaH6In2DtcVB6amV8BYg0JK73KksSTXrM50xOGENxwA+Gn82mb0
TyBqhq2UvQKmjBnypv63I5GjLphYyi2wipporARxGyE1jUV5oISHepKr3D603ZoG
q0ImaulwpiYaNCmBvO6MmXrFQ0mcNZR/j8vL9kBU9zoHqS4N8KBpVzLyyyw/xYIX
+XRjlSnoDBFfNLf1p8XmZsR2B7qNA8xj7CJsuJowxN7/AgMBAAEwDQYJKoZIhvcN
AQELBQADggEBAEW5PY7vWBq9RBVcKi9ad8/n0b8GLz9U/wC/JpxSp+dBNfoSEEF7
KRLFGItHlTkBOeoXeRr8O96hEpqdoOeN2Fq7kCytSIr+OfnUeBgnGGzgk2jm1OLw
auhLA161hYT3DNOGttPVspsZAf0tgSY3hlWLBO3YykOzB7fR9PXmaE2eEZOiopEc
tF2008H6FedFYmCc7vqHp6fSg8F66XU21WWQUkPNPWNScDwnBC7rclgaBotqWhtw
3SS/rRpRvgje9E+RmL8l/hXFOpnDsgoF5750o3IIV2iSUKxq7LfPHxUFYWlzQQVe
eqdYmUE/Pa+lNptDuieyzKapyFE4LXJvt68=
-----END CERTIFICATE-----
