Certificate:
    Data:
        Version: 1 (0x0)
        Serial Number: 1 (0x1)
        Signature Algorithm: sha256WithRSAEncryption
        Issuer: C=FR, ST=Ile de France, O=AWS Team, CN=localhost/emailAddress=aws@obry.net
        Validity
            Not Before: Jun 28 14:05:49 2022 GMT
            Not After : Jun 25 14:05:49 2032 GMT
        Subject: C=FR, ST=Ile de France, O=AWS Team, CN=0043_check_mem/emailAddress=aws@obry.net
        Subject Public Key Info:
            Public Key Algorithm: rsaEncryption
                RSA Public-Key: (2048 bit)
                Modulus:
                    00:d3:97:fb:e7:70:79:e9:09:77:97:94:6a:6e:eb:
                    11:93:74:47:47:d0:6d:8f:b3:85:6a:57:85:ad:5d:
                    78:b3:6f:97:e4:e3:ec:fe:de:dd:9d:58:e0:c9:d0:
                    bb:08:eb:21:fd:27:20:43:87:3f:e9:ef:0d:f6:21:
                    c9:c3:66:bf:4f:d7:34:ef:d8:c9:07:9f:e0:d6:32:
                    cc:e8:59:45:2c:65:57:6c:24:e3:af:7f:11:ae:0b:
                    1c:25:82:10:a1:4f:b0:fb:f3:13:e9:e6:44:7e:0b:
                    c3:3f:1c:11:a3:71:6d:f4:bf:ef:0d:c1:b2:75:52:
                    6a:2e:e4:4c:5f:92:80:0d:a4:73:64:d4:cc:5d:cd:
                    51:59:45:8d:73:36:6c:28:3f:a2:e6:7e:6f:70:48:
                    cc:7a:0c:df:25:9a:63:b4:d8:0b:4d:d3:a9:2b:21:
                    8e:23:5f:fa:d0:23:fd:4b:4d:5a:c3:f6:9b:55:9e:
                    92:9d:0a:8a:28:2c:7a:d7:bb:e9:8d:77:14:74:63:
                    a7:79:d2:07:d0:fc:37:56:b6:6d:88:0f:b0:36:c4:
                    8b:f8:1f:87:a5:b4:92:36:07:ba:5f:2b:11:25:c7:
                    02:28:df:f5:8d:26:49:3b:26:2a:14:a4:fa:78:e7:
                    6e:41:70:b5:39:33:7e:4a:a3:04:4b:32:04:b5:3b:
                    f4:fb
                Exponent: 65537 (0x10001)
    Signature Algorithm: sha256WithRSAEncryption
         8a:8c:93:a8:3b:00:a7:f1:c4:bd:6e:2b:e1:22:f5:34:10:77:
         4d:9e:85:e9:ce:eb:1d:46:1b:5d:85:c6:e2:80:bb:30:ac:66:
         9b:51:99:e6:ce:dc:65:3d:e4:c8:a2:c3:2c:ba:d8:bb:b9:8a:
         e5:d6:88:12:3b:44:07:2b:d6:6d:f1:31:53:0d:84:3e:4f:81:
         c3:2b:f4:60:2b:b6:2c:61:2b:91:cd:6c:61:11:a6:11:b6:2e:
         cd:9a:7a:f7:4c:d5:89:4f:b3:40:e4:60:cb:76:6e:77:62:fb:
         ff:5f:62:87:c4:3f:22:27:a8:33:49:80:32:9e:b9:08:b3:ea:
         f5:91:39:da:4a:b2:5e:da:2f:f5:ab:a3:52:59:17:fa:71:0b:
         7c:16:fc:6a:6a:ab:38:89:36:c2:49:89:01:c9:77:db:3c:97:
         94:02:29:30:17:43:a4:07:88:86:7e:fa:f8:59:50:18:c5:4d:
         ac:3e:83:a2:6b:eb:84:e2:88:1e:94:bc:96:13:e6:2b:aa:70:
         a3:52:10:e6:fb:2d:0c:f5:61:5f:5a:9b:9b:50:7b:af:5a:0b:
         43:55:e6:22:2c:36:cb:b8:91:99:51:f3:00:92:58:71:ea:b4:
         13:ab:c8:5e:38:96:b1:16:b2:fd:a6:3d:e0:77:33:c8:27:0c:
         0e:4c:c0:4f
-----BEGIN CERTIFICATE-----
MIIDSzCCAjMCAQEwDQYJKoZIhvcNAQELBQAwaTELMAkGA1UEBhMCRlIxFjAUBgNV
BAgMDUlsZSBkZSBGcmFuY2UxETAPBgNVBAoMCEFXUyBUZWFtMRIwEAYDVQQDDAls
b2NhbGhvc3QxGzAZBgkqhkiG9w0BCQEWDGF3c0BvYnJ5Lm5ldDAeFw0yMjA2Mjgx
NDA1NDlaFw0zMjA2MjUxNDA1NDlaMG4xCzAJBgNVBAYTAkZSMRYwFAYDVQQIDA1J
bGUgZGUgRnJhbmNlMREwDwYDVQQKDAhBV1MgVGVhbTEXMBUGA1UEAwwOMDA0M19j
aGVja19tZW0xGzAZBgkqhkiG9w0BCQEWDGF3c0BvYnJ5Lm5ldDCCASIwDQYJKoZI
hvcNAQEBBQADggEPADCCAQoCggEBANOX++dweekJd5eUam7rEZN0R0fQbY+zhWpX
ha1deLNvl+Tj7P7e3Z1Y4MnQuwjrIf0nIEOHP+nvDfYhycNmv0/XNO/YyQef4NYy
zOhZRSxlV2wk469/Ea4LHCWCEKFPsPvzE+nmRH4Lwz8cEaNxbfS/7w3BsnVSai7k
TF+SgA2kc2TUzF3NUVlFjXM2bCg/ouZ+b3BIzHoM3yWaY7TYC03TqSshjiNf+tAj
/UtNWsP2m1Wekp0Kiigsete76Y13FHRjp3nSB9D8N1a2bYgPsDbEi/gfh6W0kjYH
ul8rESXHAijf9Y0mSTsmKhSk+njnbkFwtTkzfkqjBEsyBLU79PsCAwEAATANBgkq
hkiG9w0BAQsFAAOCAQEAioyTqDsAp/HEvW4r4SL1NBB3TZ6F6c7rHUYbXYXG4oC7
MKxmm1GZ5s7cZT3kyKLDLLrYu7mK5daIEjtEByvWbfExUw2EPk+Bwyv0YCu2LGEr
kc1sYRGmEbYuzZp690zViU+zQORgy3Zud2L7/19ih8Q/IieoM0mAMp65CLPq9ZE5
2kqyXtov9aujUlkX+nELfBb8amqrOIk2wkmJAcl32zyXlAIpMBdDpAeIhn76+FlQ
GMVNrD6DomvrhOKIHpS8lhPmK6pwo1IQ5vstDPVhX1qbm1B7r1oLQ1XmIiw2y7iR
mVHzAJJYceq0E6vIXjiWsRay/aY94HczyCcMDkzATw==
-----END CERTIFICATE-----
