Certificate:
    Data:
        Version: 1 (0x0)
        Serial Number: 1 (0x1)
        Signature Algorithm: sha256WithRSAEncryption
        Issuer: C=FR, ST=Paris, O=ACME, OU=CA
        Validity
            Not Before: Feb 12 06:09:30 2021 GMT
            Not After : Feb 12 06:09:30 2022 GMT
        Subject: C=FR, ST=Paris, O=ACME, OU=server, CN=localhost
        Subject Public Key Info:
            Public Key Algorithm: rsaEncryption
                RSA Public-Key: (2048 bit)
                Modulus:
                    00:f6:ce:d9:0b:ca:2e:92:7a:74:62:12:4b:95:cc:
                    0d:97:e2:6b:87:80:6b:14:29:39:88:17:f6:ca:75:
                    0c:ca:ac:78:dc:8b:24:d4:c6:3f:89:fe:15:df:80:
                    80:1a:e4:f0:1f:41:05:07:ef:ad:1c:f2:f3:1e:dc:
                    93:9d:7e:17:34:6f:c9:8a:07:83:d8:67:b4:16:00:
                    33:80:31:0b:f1:a8:a0:10:91:80:d4:36:4b:c0:ce:
                    b0:b5:4c:31:17:86:2c:d3:10:8d:23:51:bd:a0:fb:
                    e4:1c:a0:18:a1:8e:37:3e:e9:8f:e4:cb:65:70:20:
                    88:24:7e:7b:55:fd:4b:0b:ff:0d:8a:01:58:5c:e7:
                    db:b3:28:bc:18:72:c2:d6:d2:7b:b3:8e:c5:f0:ec:
                    20:d8:a4:b3:aa:77:8a:f5:8d:66:cb:f2:08:4e:92:
                    fa:0d:2d:bd:67:dd:ba:5f:ee:cd:89:9a:d6:6b:a5:
                    da:92:f5:f9:58:00:dc:b3:02:61:eb:78:97:85:47:
                    73:18:fa:ce:19:97:38:c4:cb:a9:ca:9e:27:e6:9f:
                    0c:ba:f4:93:5c:6c:28:cb:35:de:74:83:f5:ab:b6:
                    3d:c0:53:61:1a:f4:b6:1c:8b:00:0d:30:e8:a7:69:
                    d7:bc:3f:a2:9c:82:cb:6a:ce:28:e5:46:a1:29:7a:
                    ea:93
                Exponent: 65537 (0x10001)
    Signature Algorithm: sha256WithRSAEncryption
         87:ea:38:c2:a7:bf:76:05:e9:94:fc:73:54:71:c8:06:48:ad:
         e8:fd:4f:68:80:9c:93:14:f9:d8:21:e4:2e:5a:2f:8e:bf:36:
         f7:d4:5c:02:89:6c:2a:16:c1:ae:f2:66:e8:10:90:5b:7d:68:
         07:4e:da:9e:b5:53:4f:1d:61:0e:08:a2:26:5d:eb:57:b1:46:
         00:05:e5:94:f7:40:0a:e3:c7:b6:ae:f3:05:08:dc:44:83:42:
         0c:b4:51:b1:c1:bd:0f:eb:47:99:21:f9:57:ee:b1:5d:7a:31:
         59:d5:76:e6:c3:dd:5a:73:fa:01:ee:15:3f:af:c4:9b:7a:f9:
         5a:fc:93:0c:52:0d:57:86:21:2d:4f:6a:b3:78:f6:ee:09:0c:
         84:f4:8f:13:84:61:be:56:33:43:d6:db:ff:e6:d2:bd:fa:3d:
         cc:2c:9b:54:ce:9b:fb:8b:9e:8b:1c:ab:57:8e:a6:3b:98:c6:
         44:d6:3a:84:7c:10:cc:21:0c:b3:4e:0c:15:a7:97:d0:83:bc:
         bc:6b:f5:54:de:97:c1:7b:47:fc:7e:78:4f:af:56:49:7a:6d:
         15:50:5f:ad:cb:7e:40:c4:e3:86:c0:79:b7:85:50:a1:45:9a:
         d5:7e:b5:c7:b7:0b:57:4a:13:4d:25:06:ca:c7:c5:a5:bc:4f:
         84:cc:26:fb
-----BEGIN CERTIFICATE-----
MIIC/jCCAeYCAQEwDQYJKoZIhvcNAQELBQAwOTELMAkGA1UEBhMCRlIxDjAMBgNV
BAgMBVBhcmlzMQ0wCwYDVQQKDARBQ01FMQswCQYDVQQLDAJDQTAeFw0yMTAyMTIw
NjA5MzBaFw0yMjAyMTIwNjA5MzBaMFExCzAJBgNVBAYTAkZSMQ4wDAYDVQQIDAVQ
YXJpczENMAsGA1UECgwEQUNNRTEPMA0GA1UECwwGc2VydmVyMRIwEAYDVQQDDAls
b2NhbGhvc3QwggEiMA0GCSqGSIb3DQEBAQUAA4IBDwAwggEKAoIBAQD2ztkLyi6S
enRiEkuVzA2X4muHgGsUKTmIF/bKdQzKrHjciyTUxj+J/hXfgIAa5PAfQQUH760c
8vMe3JOdfhc0b8mKB4PYZ7QWADOAMQvxqKAQkYDUNkvAzrC1TDEXhizTEI0jUb2g
++QcoBihjjc+6Y/ky2VwIIgkfntV/UsL/w2KAVhc59uzKLwYcsLW0nuzjsXw7CDY
pLOqd4r1jWbL8ghOkvoNLb1n3bpf7s2JmtZrpdqS9flYANyzAmHreJeFR3MY+s4Z
lzjEy6nKnifmnwy69JNcbCjLNd50g/Wrtj3AU2Ea9LYciwANMOinade8P6Kcgstq
zijlRqEpeuqTAgMBAAEwDQYJKoZIhvcNAQELBQADggEBAIfqOMKnv3YF6ZT8c1Rx
yAZIrej9T2iAnJMU+dgh5C5aL46/NvfUXAKJbCoWwa7yZugQkFt9aAdO2p61U08d
YQ4IoiZd61exRgAF5ZT3QArjx7au8wUI3ESDQgy0UbHBvQ/rR5kh+VfusV16MVnV
dubD3Vpz+gHuFT+vxJt6+Vr8kwxSDVeGIS1ParN49u4JDIT0jxOEYb5WM0PW2//m
0r36Pcwsm1TOm/uLnoscq1eOpjuYxkTWOoR8EMwhDLNODBWnl9CDvLxr9VTel8F7
R/x+eE+vVkl6bRVQX63LfkDE44bAebeFUKFFmtV+tce3C1dKE00lBsrHxaW8T4TM
Jvs=
-----END CERTIFICATE-----
-----BEGIN RSA PRIVATE KEY-----
MIIEpAIBAAKCAQEA9s7ZC8ouknp0YhJLlcwNl+Jrh4BrFCk5iBf2ynUMyqx43Isk
1MY/if4V34CAGuTwH0EFB++tHPLzHtyTnX4XNG/JigeD2Ge0FgAzgDEL8aigEJGA
1DZLwM6wtUwxF4Ys0xCNI1G9oPvkHKAYoY43PumP5MtlcCCIJH57Vf1LC/8NigFY
XOfbsyi8GHLC1tJ7s47F8Owg2KSzqneK9Y1my/IITpL6DS29Z926X+7NiZrWa6Xa
kvX5WADcswJh63iXhUdzGPrOGZc4xMupyp4n5p8MuvSTXGwoyzXedIP1q7Y9wFNh
GvS2HIsADTDop2nXvD+inILLas4o5UahKXrqkwIDAQABAoIBAQDh5VEjSVp3Fz2O
xdAIu0t1yPdCfneDbHgL6GMpyxh6KII22eRMG2fslXLPrn2SIBjngktoiCaaaIO9
q4YwkEgM5oRAocA7Qi/CM0zv9/RGq2BVyddwZIHRZ1y1k5cbQOOmC3Ai853syqBu
0tm4hMJsArqBXujpR91UCbA5dCxMPMm07oeZ5hGEE1ArdUHCiDmrBml30rsl1wrg
naMuP7bf+Buu8KkB13hYRd8Zn8CA/fkd9RKdYZ4eAJoCgxj3qfHqQ4yNgYo7JJRd
vwIS10eSbLB8WYFl4RSzuw9qxyX8t/C+CF+0E9nfzL/rHcyvvbSheQQ/XiI+wa4p
jGq5x3aBAoGBAPvCIHMzqLQAbjRSXdShiY+nOCvG1TDSmythpUqbJb5Ul920aOrl
KN8HtLON9a5MOK6MBhcHClcGdB5aLIjeaT4cYkO7SZW5bTh/ITXT8InYHcsSiEBp
RQcd/nfd7Ri7HhbP2w51eX1pP/iZsWrGEAIce5yVIUZVFNmrRE17i2oPAoGBAPr3
Xp9Wh4597H8s08xxMkSIEfTsK+NsLpulCa64FFQiwGhNOQxHFitm7ZZbb3waogb6
Q02+o1bvBSnzYFlP93oZqVagEsQrP5TIJNH75W4USnrGFZyhvygkpc3PX9J5yZnn
08QVLiL4Xn3S1Vxc5vXtJHxUq1Q0xtfRFBANDAs9AoGBALaCFrAtJQHIxhucEnWQ
3X6MhQYHUIniQ6cBVKhvLL9759RLczvGAQkeNvtr0E0Y6IZw8AFFk1NfVFKkoGBg
i/8A6KOdZEzsbadlUhgJmvjy+TY8KxY2ulncfps7ASTKkZeL+4vR0c7+u+dm091J
1FUTfPEYk1S/XSwnIo7hH0I1AoGALdtbb9P4ywGZYBeJz9ZzL/CJD27ECjcvQQNk
BIfgNwtuiuBpZyPqGh4hlZK5iTy4lHvQJnmKEQ11rReqaEdjWe0scwamxy9726zC
hZf4cSfGAC8HreokKqqfnT6iLKxSOQwSNscD+iHV6jnHAKx9Czy8qPczoxxNpQuw
Fcq8g6UCgYBQuszWloQxiXla3OQnDBedII80eO4AOV8KT2VJMaxeSEk3sD1Tux6k
f73FgnpSTqbwzE3oVExg4nPQDPJcmmJep4+Prfugci0U16OSRsDovSSbre9+IxQK
ZXQQVaUBZEXHI6LZKjwGRJOkj7C6M38pgjtF5NZul1CtPZCnibpdUg==
-----END RSA PRIVATE KEY-----
