Certificate:
    Data:
        Version: 3 (0x2)
        Serial Number: 43946 (0xabaa)
    Signature Algorithm: sha1WithRSAEncryption
        Issuer: C=FR, ST=Ile de France, L=Magny les Hameaux, O=AWS Team, CN=Pascal Obry/emailAddress=aws@obry.net
        Validity
            Not Before: Aug  6 16:18:51 2012 GMT
            Not After : Aug  1 16:18:51 2032 GMT
        Subject: C=FR, ST=Ile de France, O=AWS Team, CN=localhost/emailAddress=aws@obry.net
        Subject Public Key Info:
            Public Key Algorithm: rsaEncryption
                Public-Key: (1024 bit)
                Modulus:
                    00:a8:f2:9b:8d:c0:26:5e:c2:c6:72:1f:19:a6:d3:
                    3e:93:3a:a2:b8:7b:0c:44:d4:ea:04:16:0f:c7:30:
                    06:c7:18:d9:10:0b:87:03:a9:9b:f6:c1:16:30:93:
                    37:75:46:ba:f7:39:96:11:a8:38:50:77:c2:38:3d:
                    65:a2:26:cc:de:f1:54:11:21:4a:52:4b:00:73:0c:
                    85:ca:41:0d:4f:11:d9:3d:ad:dc:e2:0b:ce:82:d7:
                    61:6a:d3:51:4d:65:ef:6c:13:7e:81:50:f0:28:8e:
                    ce:01:8d:e8:3a:81:c7:b2:be:69:2f:eb:95:81:9e:
                    49:ed:75:0e:ee:fe:b2:b1:0f
                Exponent: 65537 (0x10001)
        X509v3 extensions:
            X509v3 Basic Constraints:
                CA:FALSE
            Netscape Comment:
                OpenSSL Generated Certificate
            X509v3 Subject Key Identifier:
                E2:C2:8B:34:07:93:7F:27:84:C3:7D:E7:7A:67:88:B1:55:27:A8:46
            X509v3 Authority Key Identifier:
                DirName:/C=FR/ST=Ile de France/L=Magny les Hameaux/O=AWS Team/CN=Pascal Obry/emailAddress=aws@obry.net
                serial:D7:45:4C:42:A0:E5:76:22

    Signature Algorithm: sha1WithRSAEncryption
         64:05:9c:a9:91:6a:ed:e9:9b:ec:a6:60:fa:7a:44:96:b6:0f:
         00:16:c0:fb:82:7a:43:ce:cb:6c:88:60:29:99:3b:6e:ad:d5:
         5e:25:82:bb:23:be:c0:c6:93:87:b2:a3:f8:88:e3:57:cf:c4:
         b4:14:35:fc:3b:6b:42:08:8a:63:f1:97:ad:fc:4f:07:0a:89:
         e5:d3:15:a3:91:d6:ee:26:26:d4:8b:8b:48:2e:b8:b2:01:ca:
         36:3c:7d:df:b7:20:23:4f:8d:4b:76:1f:40:95:6b:93:b8:2c:
         d0:67:8b:23:75:05:64:5f:53:f5:d1:80:1b:6b:0d:47:43:c2:
         c8:61
-----BEGIN CERTIFICATE-----
MIIDcDCCAtmgAwIBAgIDAKuqMA0GCSqGSIb3DQEBBQUAMIGHMQswCQYDVQQGEwJG
UjEWMBQGA1UECAwNSWxlIGRlIEZyYW5jZTEaMBgGA1UEBwwRTWFnbnkgbGVzIEhh
bWVhdXgxETAPBgNVBAoMCEFXUyBUZWFtMRQwEgYDVQQDDAtQYXNjYWwgT2JyeTEb
MBkGCSqGSIb3DQEJARYMYXdzQG9icnkubmV0MB4XDTEyMDgwNjE2MTg1MVoXDTMy
MDgwMTE2MTg1MVowaTELMAkGA1UEBhMCRlIxFjAUBgNVBAgMDUlsZSBkZSBGcmFu
Y2UxETAPBgNVBAoMCEFXUyBUZWFtMRIwEAYDVQQDDAlsb2NhbGhvc3QxGzAZBgkq
hkiG9w0BCQEWDGF3c0BvYnJ5Lm5ldDCBnzANBgkqhkiG9w0BAQEFAAOBjQAwgYkC
gYEAqPKbjcAmXsLGch8ZptM+kzqiuHsMRNTqBBYPxzAGxxjZEAuHA6mb9sEWMJM3
dUa69zmWEag4UHfCOD1loibM3vFUESFKUksAcwyFykENTxHZPa3c4gvOgtdhatNR
TWXvbBN+gVDwKI7OAY3oOoHHsr5pL+uVgZ5J7XUO7v6ysQ8CAwEAAaOCAQUwggEB
MAkGA1UdEwQCMAAwLAYJYIZIAYb4QgENBB8WHU9wZW5TU0wgR2VuZXJhdGVkIENl
cnRpZmljYXRlMB0GA1UdDgQWBBTiwos0B5N/J4TDfed6Z4ixVSeoRjCBpgYDVR0j
BIGeMIGboYGNpIGKMIGHMQswCQYDVQQGEwJGUjEWMBQGA1UECAwNSWxlIGRlIEZy
YW5jZTEaMBgGA1UEBwwRTWFnbnkgbGVzIEhhbWVhdXgxETAPBgNVBAoMCEFXUyBU
ZWFtMRQwEgYDVQQDDAtQYXNjYWwgT2JyeTEbMBkGCSqGSIb3DQEJARYMYXdzQG9i
cnkubmV0ggkA10VMQqDldiIwDQYJKoZIhvcNAQEFBQADgYEAZAWcqZFq7emb7KZg
+npElrYPABbA+4J6Q87LbIhgKZk7bq3VXiWCuyO+wMaTh7Kj+IjjV8/EtBQ1/Dtr
QgiKY/GXrfxPBwqJ5dMVo5HW7iYm1IuLSC64sgHKNjx937cgI0+NS3YfQJVrk7gs
0GeLI3UFZF9T9dGAG2sNR0PCyGE=
-----END CERTIFICATE-----
-----BEGIN RSA PRIVATE KEY-----
MIICXAIBAAKBgQCo8puNwCZewsZyHxmm0z6TOqK4ewxE1OoEFg/HMAbHGNkQC4cD
qZv2wRYwkzd1Rrr3OZYRqDhQd8I4PWWiJsze8VQRIUpSSwBzDIXKQQ1PEdk9rdzi
C86C12Fq01FNZe9sE36BUPAojs4Bjeg6gceyvmkv65WBnkntdQ7u/rKxDwIDAQAB
AoGALYPu1GmH7M+clvI5/u+6U//gBsNfssuJoEAxUABoUwsmr2Pro9j146xxRfTj
Y/0CMciZ3XfsdAFPmccwslaxqo48NSUNI+y4V5RsG/4VtF1VG6nRGCBS8PSapebK
DoFt9iZs6hZpcZBG7MgnGZCR6TYSxRmh3OA2F7QhHksJj8ECQQDZ1Hjt40EcHuxI
rnh6QJq4yjkVG9ouo5FKx2bted+gO7qtddkYIEw5yfUfKyo1BOZDlDOiwr1nwpww
+yxG5yuDAkEAxo1ZUECK81Ba2Zg2XrpXghlxakmHNJVKwXFhfA4Z+UE2YXcxR334
B6PuhPQFK03ZtBNYNE6rl5Kvpz2ZesiyhQJAWq+OONtne+GT1R5todfLkir+YL9b
shb+ofcp7qvSYc78BMMPQnAPy+88UWGTDMehZXkJljUkzVHD3NB0un/7KQJAUeGq
6oijhPIndULrcSdhvTpm5lFKW+oReTMb48AhAATfu1QfU39kkSoOzG+hzhj95eBw
aKnk485PeCXULKmlzQJBAMG/X6sVAdpctepFgK/4WzCjJR/8LaTo1fzGI6yLmgZx
eJLkXBPpOnhFAuSAbAlidCxi8XvGWqG17XF7HonEU8w=
-----END RSA PRIVATE KEY-----
