Certificate:
    Data:
        Version: 3 (0x2)
        Serial Number: 44449 (0xada1)
    Signature Algorithm: sha1WithRSAEncryption
        Issuer: C=FR, ST=Ile de France, L=Paris, O=AdaCore, OU=CA, CN=CA-Web-Client/emailAddress=aws-clt@adacore.com
        Validity
            Not Before: Apr 26 02:55:41 2014 GMT
            Not After : Jul  4 02:55:41 2016 GMT
        Subject: C=FR, ST=Ile de France, O=AdaCore, OU=CRM, CN=test-client-cert/emailAddress=aws-test@adacore.com
        Subject Public Key Info:
            Public Key Algorithm: rsaEncryption
                Public-Key: (2048 bit)
                Modulus:
                    00:d5:e0:c8:a0:46:5f:19:72:ee:b9:da:11:80:a6:
                    d6:48:5e:73:14:55:7f:aa:1b:cb:03:01:fc:40:95:
                    9c:67:0a:b3:fb:a0:a6:db:08:f2:c9:7a:80:83:1c:
                    6f:79:02:78:a8:00:ff:db:17:76:7d:69:08:63:71:
                    b3:f2:5d:03:a8:de:07:ab:ac:4f:16:f5:23:69:1b:
                    d4:db:2e:ee:ae:66:fe:be:42:7e:fe:9e:f2:1d:44:
                    04:2f:27:bc:88:3e:e6:fe:30:c9:c5:ca:84:eb:aa:
                    9c:9c:31:7e:c5:4e:15:2c:6b:ad:86:73:dc:d4:51:
                    2a:60:73:2d:62:2e:fc:4d:b3:85:ae:99:cc:6e:1a:
                    91:94:32:22:79:dc:9f:ac:96:e6:79:9d:a1:ba:2e:
                    89:85:a0:ce:a8:b3:d5:1b:9a:6d:20:69:1b:3b:60:
                    da:4a:15:77:be:2f:95:a6:1d:12:65:b5:ed:8c:2c:
                    1e:b7:d0:97:ae:b3:f2:a3:33:ae:3f:27:c8:1d:51:
                    22:2f:46:c5:5e:56:df:e7:9b:af:1c:05:29:fb:61:
                    aa:87:2d:6b:03:38:ac:90:08:af:81:f1:10:22:6a:
                    49:13:f6:76:b5:4e:8a:eb:37:54:75:c0:60:80:61:
                    88:c3:9c:23:31:01:2d:3c:d7:17:9c:69:4d:67:56:
                    85:dd
                Exponent: 65537 (0x10001)
        X509v3 extensions:
            X509v3 Basic Constraints: 
                CA:FALSE
            Netscape Comment: 
                OpenSSL Generated Certificate
            X509v3 Subject Key Identifier: 
                2B:80:E8:46:02:3D:2F:03:CF:A6:20:C8:48:F9:A9:95:D2:86:F2:73
            X509v3 Authority Key Identifier: 
                DirName:/C=FR/ST=Ile de France/L=Paris/O=AdaCore/OU=CA/CN=CA-Web-Client/emailAddress=aws-clt@adacore.com
                serial:96:EE:C6:04:FB:66:BA:D4

    Signature Algorithm: sha1WithRSAEncryption
         b7:d5:3d:1f:f3:41:b8:a1:f9:da:31:f4:54:cc:3a:eb:a1:de:
         5c:bb:b8:32:ea:ff:c0:75:8d:9f:0c:cc:ed:a2:7c:90:e2:a6:
         6c:9e:dc:13:82:de:c0:2b:38:45:ee:83:ca:74:39:34:3a:9d:
         97:a9:53:90:c2:16:4b:2b:d9:1c:b6:a7:e6:25:ad:9b:03:f7:
         11:f8:7a:f0:34:94:5f:ba:fd:d5:ee:66:b2:c2:ec:6c:dd:40:
         bb:8c:2e:30:34:8b:40:1b:0b:50:ed:17:11:52:37:7f:15:7b:
         a0:bb:5c:8f:e1:a8:0a:f3:38:74:16:fb:d6:b7:a3:13:2a:9e:
         17:3e:29:96:97:61:dd:69:79:7d:23:d4:a5:45:f8:b6:6b:c9:
         56:75:55:28:bf:76:65:4b:d6:e4:86:c1:d4:21:ef:e9:7c:3f:
         fc:9e:32:d9:4a:a8:e1:35:cf:2a:12:1f:92:f0:22:9c:61:aa:
         70:98:ec:74:e1:7c:8a:32:2b:de:5e:36:f0:38:e7:8b:c1:c9:
         5d:8f:54:c2:a2:d7:7e:51:c7:fe:01:85:5f:fa:c0:fe:50:37:
         03:ed:28:cf:7c:2b:e1:e2:3f:80:5d:5c:b1:0b:8b:a8:09:86:
         a2:9f:73:31:78:09:a6:b2:e2:ea:65:b9:92:7b:6e:e8:a7:53:
         b4:50:50:ef
-----BEGIN CERTIFICATE-----
MIIEpDCCA4ygAwIBAgIDAK2hMA0GCSqGSIb3DQEBBQUAMIGQMQswCQYDVQQGEwJG
UjEWMBQGA1UECAwNSWxlIGRlIEZyYW5jZTEOMAwGA1UEBwwFUGFyaXMxEDAOBgNV
BAoMB0FkYUNvcmUxCzAJBgNVBAsMAkNBMRYwFAYDVQQDDA1DQS1XZWItQ2xpZW50
MSIwIAYJKoZIhvcNAQkBFhNhd3MtY2x0QGFkYWNvcmUuY29tMB4XDTE0MDQyNjAy
NTU0MVoXDTE2MDcwNDAyNTU0MVowgYUxCzAJBgNVBAYTAkZSMRYwFAYDVQQIDA1J
bGUgZGUgRnJhbmNlMRAwDgYDVQQKDAdBZGFDb3JlMQwwCgYDVQQLDANDUk0xGTAX
BgNVBAMMEHRlc3QtY2xpZW50LWNlcnQxIzAhBgkqhkiG9w0BCQEWFGF3cy10ZXN0
QGFkYWNvcmUuY29tMIIBIjANBgkqhkiG9w0BAQEFAAOCAQ8AMIIBCgKCAQEA1eDI
oEZfGXLuudoRgKbWSF5zFFV/qhvLAwH8QJWcZwqz+6Cm2wjyyXqAgxxveQJ4qAD/
2xd2fWkIY3Gz8l0DqN4Hq6xPFvUjaRvU2y7urmb+vkJ+/p7yHUQELye8iD7m/jDJ
xcqE66qcnDF+xU4VLGuthnPc1FEqYHMtYi78TbOFrpnMbhqRlDIiedyfrJbmeZ2h
ui6JhaDOqLPVG5ptIGkbO2DaShV3vi+Vph0SZbXtjCwet9CXrrPyozOuPyfIHVEi
L0bFXlbf55uvHAUp+2Gqhy1rAziskAivgfEQImpJE/Z2tU6K6zdUdcBggGGIw5wj
MQEtPNcXnGlNZ1aF3QIDAQABo4IBDjCCAQowCQYDVR0TBAIwADAsBglghkgBhvhC
AQ0EHxYdT3BlblNTTCBHZW5lcmF0ZWQgQ2VydGlmaWNhdGUwHQYDVR0OBBYEFCuA
6EYCPS8Dz6YgyEj5qZXShvJzMIGvBgNVHSMEgacwgaShgZakgZMwgZAxCzAJBgNV
BAYTAkZSMRYwFAYDVQQIDA1JbGUgZGUgRnJhbmNlMQ4wDAYDVQQHDAVQYXJpczEQ
MA4GA1UECgwHQWRhQ29yZTELMAkGA1UECwwCQ0ExFjAUBgNVBAMMDUNBLVdlYi1D
bGllbnQxIjAgBgkqhkiG9w0BCQEWE2F3cy1jbHRAYWRhY29yZS5jb22CCQCW7sYE
+2a61DANBgkqhkiG9w0BAQUFAAOCAQEAt9U9H/NBuKH52jH0VMw666HeXLu4Mur/
wHWNnwzM7aJ8kOKmbJ7cE4LewCs4Re6DynQ5NDqdl6lTkMIWSyvZHLan5iWtmwP3
Efh68DSUX7r91e5mssLsbN1Au4wuMDSLQBsLUO0XEVI3fxV7oLtcj+GoCvM4dBb7
1rejEyqeFz4plpdh3Wl5fSPUpUX4tmvJVnVVKL92ZUvW5IbB1CHv6Xw//J4y2Uqo
4TXPKhIfkvAinGGqcJjsdOF8ijIr3l428Djni8HJXY9UwqLXflHH/gGFX/rA/lA3
A+0oz3wr4eI/gF1csQuLqAmGop9zMXgJprLi6mW5kntu6KdTtFBQ7w==
-----END CERTIFICATE-----
-----BEGIN PRIVATE KEY-----
MIIEvgIBADANBgkqhkiG9w0BAQEFAASCBKgwggSkAgEAAoIBAQDV4MigRl8Zcu65
2hGAptZIXnMUVX+qG8sDAfxAlZxnCrP7oKbbCPLJeoCDHG95AnioAP/bF3Z9aQhj
cbPyXQOo3gerrE8W9SNpG9TbLu6uZv6+Qn7+nvIdRAQvJ7yIPub+MMnFyoTrqpyc
MX7FThUsa62Gc9zUUSpgcy1iLvxNs4WumcxuGpGUMiJ53J+sluZ5naG6LomFoM6o
s9Ubmm0gaRs7YNpKFXe+L5WmHRJlte2MLB630Jeus/KjM64/J8gdUSIvRsVeVt/n
m68cBSn7YaqHLWsDOKyQCK+B8RAiakkT9na1TorrN1R1wGCAYYjDnCMxAS081xec
aU1nVoXdAgMBAAECggEAfomtaVX5Md9T6lVggZMzuEFZKLClBYnIBJGKItPhYv1s
GvWjgne63QVDP071jMyvggaFWaR6EByyP9OnuT7ayXADbchWSqjiOG+k8cDEqh55
nStOY2q6qCHzr8p8uscsdzt6RTFajuu0GJ0X+bgGwu86DRBDmMIkpke+lBZkY7s7
3x1f70wKWBLN4rh0MpvlHQAzEBzS8gLutlbsEuapw9y6XD6L9QZ2Vatk2NiSyt58
1uya3a1P50V+OGQdaqFt2DUtjW+F6hvgpR98vtEqjk/q226G8vsOuQCK98nD7Y6g
zSCfl/l+LFpaV3lIyBLA/U32/jdvGcBa8KPnvG+6qQKBgQDw2zgXmBs/DaU93zPj
0TMY0gpnRQHHAjsTW6Sh1s7HUu7KUw9euyIcodrhR9SCf+ErDMYybehzrfnk4YLw
CWfkUw10QbpLDV96erkC71aqAickuB0SKJY4WVl6PEUi75gP8zvXZzCIrVR5cj61
jQ7FyIHzAvMQgPFlqO3PVm7gvwKBgQDjU1PEuuAAzQDRSexWAH6Y+Zt+fIR1Z8Yf
EUi0QO9SixuLVPy4XnXIf2vBsLYO3WlGdNMnZCS2ppGjLpnLYiNlwN5639ks1Vha
f5h9QZJ1CyGO276UttzpycASGxTdywdDoJFW7RTsRSUxBGgq8rgMTmr1pGSe834j
nF2AhRVkYwKBgQCRisaga0e7mFFLy/6dIaMQ0ot6z9Y9HXn5Pp2DNjyJcfHdzMcy
5T29s4iCLVea7A9yZiu1+XhHvs+MoUDwL57Z993fbIBYLeKOLm5x+ZKS9O4WYDMg
7+mmb0eEd7sHW2S17rMwfKh1TtgG8yQ1rOFKXtk3sYaTaHd2iNf7PC2QHQKBgQDA
jyMUMB/zTbP1lKLHLuAOANHAUQV61g6y3lcxqReQWhlY6wKvwgQPdC/5ABEXgmHc
trTuVxvqRCp1idHowBav6LIMb3VtTsLq1c57u4Gt92HTuzwyiLuUpbs3Gw2P2p0q
oea7NVRV1zRr0wnR54wTkJF1xm0dX7BnxdpGNXUrdQKBgCNnHt2i3/cGjGCI5cnQ
x+n2g2IcDf1fUne+dTsxBDKYtXX61jyKHxasJzWDjVwfui9CMgd7OBVFzm4n7l6z
0smvmM/YQEImSGkNBKWVqZTRuYtBZlH23VMg7RrSvHYN3nhLC2qlR6DVUexIweUi
gT4OM1t+Kjxt96/AgaQNWz03
-----END PRIVATE KEY-----
