Certificate:
    Data:
        Version: 3 (0x2)
        Serial Number: 44448 (0xada0)
    Signature Algorithm: sha1WithRSAEncryption
        Issuer: C=FR, ST=Ile de France, L=Paris, O=AdaCore, OU=CA, CN=CA-Web-Server/emailAddress=ca-aws@adacore.com
        Validity
            Not Before: Jul  7 07:45:33 2016 GMT
            Not After : Oct 14 07:45:33 2020 GMT
        Subject: C=FR, ST=Ile de France, O=AdaCore, OU=CRM, CN=localhost/emailAddress=aws-test@adacore.com
        Subject Public Key Info:
            Public Key Algorithm: rsaEncryption
                Public-Key: (2048 bit)
                Modulus:
                    00:d3:7c:04:02:30:ee:e1:e3:f4:23:15:56:28:e7:
                    14:10:10:6a:a2:71:4e:64:6c:65:ae:29:f9:88:a6:
                    05:6b:23:16:23:c3:6d:3e:29:7b:96:21:e1:bd:b0:
                    f1:16:80:e0:78:b4:b1:1c:47:d6:2b:be:90:71:44:
                    2e:16:93:d4:fa:f4:56:62:9c:3b:17:87:9a:71:74:
                    71:f0:11:b1:6b:8b:24:5d:7f:0d:e9:c9:1b:6f:f6:
                    da:fa:6d:94:67:25:e8:28:5b:ea:7a:2d:79:2a:24:
                    e5:da:9c:53:6a:58:da:00:ae:c4:6f:45:4d:03:99:
                    ed:6a:9f:f4:d7:a8:4d:70:54:bc:11:07:c2:29:ee:
                    ee:54:87:42:d6:e9:07:e4:dd:c6:66:b5:4d:35:05:
                    d0:f8:8a:11:84:cf:0e:21:81:34:28:da:57:89:f0:
                    83:03:e6:dc:69:43:1e:56:c7:b3:1d:d3:ca:71:06:
                    7a:0c:99:36:27:7d:2c:4e:60:6a:5b:e1:52:61:c1:
                    d7:8b:e2:1f:2d:83:b2:93:ac:2a:e5:17:0e:57:f2:
                    d3:7f:64:6b:61:e5:66:e3:57:34:c0:c9:7d:12:86:
                    e9:e8:19:e6:6e:02:2d:8d:e7:14:c7:96:27:71:ce:
                    a4:db:a7:d3:a7:b6:d1:ce:8c:29:8d:b6:a9:01:d7:
                    4e:5f
                Exponent: 65537 (0x10001)
        X509v3 extensions:
            X509v3 Basic Constraints: 
                CA:FALSE
            Netscape Comment: 
                OpenSSL Generated Certificate
            X509v3 Subject Key Identifier: 
                87:F2:6E:A4:66:46:C5:2C:B5:16:DC:73:41:8E:8D:16:88:E3:7A:62
            X509v3 Authority Key Identifier: 
                DirName:/C=FR/ST=Ile de France/L=Paris/O=AdaCore/OU=CA/CN=CA-Web-Server/emailAddress=ca-aws@adacore.com
                serial:92:79:A1:8A:DC:40:A1:7C

    Signature Algorithm: sha1WithRSAEncryption
         aa:f2:31:87:f3:d2:0e:69:1d:ef:df:83:f4:9d:14:b4:f9:1e:
         72:ab:9a:f2:ac:af:fa:70:b7:e4:ae:d5:7e:a5:0e:f5:b3:d9:
         4a:06:3d:91:72:b2:58:f3:1b:38:7a:68:29:01:d9:20:76:e3:
         f7:69:e1:cf:e0:4f:57:49:44:49:8f:ef:9a:ab:60:2d:c3:3f:
         21:c6:83:f8:d7:1b:7f:66:76:44:4a:a1:aa:51:25:e5:60:8a:
         03:a4:63:bb:9a:3f:2b:1f:6e:c0:16:51:9f:95:40:58:8f:6f:
         e6:61:c9:db:49:25:f7:90:2b:8c:38:f3:87:36:43:a1:34:88:
         10:79:2b:9d:f3:8d:19:86:8f:78:3f:22:15:45:ba:77:ec:ae:
         23:c2:c3:62:38:49:5e:3e:06:5b:70:cb:c3:6b:cf:7c:cb:aa:
         db:d9:f0:10:e2:67:cd:98:73:1e:1c:36:91:80:09:cc:7b:80:
         1a:5d:9d:8b:15:e9:27:63:a6:27:f8:ab:26:a7:51:c7:c7:86:
         7c:e7:3e:12:36:94:0e:a6:ef:54:6f:c4:5f:28:d2:bb:ce:75:
         e3:0f:72:5f:cb:1b:aa:45:0f:84:7b:b8:0f:20:69:dc:57:d2:
         ca:45:cd:71:38:a4:65:24:61:b9:2c:e5:46:3d:f2:1b:03:93:
         3e:10:5a:1b
-----BEGIN CERTIFICATE-----
MIIEmjCCA4KgAwIBAgIDAK2gMA0GCSqGSIb3DQEBBQUAMIGPMQswCQYDVQQGEwJG
UjEWMBQGA1UECAwNSWxlIGRlIEZyYW5jZTEOMAwGA1UEBwwFUGFyaXMxEDAOBgNV
BAoMB0FkYUNvcmUxCzAJBgNVBAsMAkNBMRYwFAYDVQQDDA1DQS1XZWItU2VydmVy
MSEwHwYJKoZIhvcNAQkBFhJjYS1hd3NAYWRhY29yZS5jb20wHhcNMTYwNzA3MDc0
NTMzWhcNMjAxMDE0MDc0NTMzWjB+MQswCQYDVQQGEwJGUjEWMBQGA1UECAwNSWxl
IGRlIEZyYW5jZTEQMA4GA1UECgwHQWRhQ29yZTEMMAoGA1UECwwDQ1JNMRIwEAYD
VQQDDAlsb2NhbGhvc3QxIzAhBgkqhkiG9w0BCQEWFGF3cy10ZXN0QGFkYWNvcmUu
Y29tMIIBIjANBgkqhkiG9w0BAQEFAAOCAQ8AMIIBCgKCAQEA03wEAjDu4eP0IxVW
KOcUEBBqonFOZGxlrin5iKYFayMWI8NtPil7liHhvbDxFoDgeLSxHEfWK76QcUQu
FpPU+vRWYpw7F4eacXRx8BGxa4skXX8N6ckbb/ba+m2UZyXoKFvqei15KiTl2pxT
aljaAK7Eb0VNA5ntap/016hNcFS8EQfCKe7uVIdC1ukH5N3GZrVNNQXQ+IoRhM8O
IYE0KNpXifCDA+bcaUMeVsezHdPKcQZ6DJk2J30sTmBqW+FSYcHXi+IfLYOyk6wq
5RcOV/LTf2RrYeVm41c0wMl9Eobp6BnmbgItjecUx5Yncc6k26fTp7bRzowpjbap
AddOXwIDAQABo4IBDTCCAQkwCQYDVR0TBAIwADAsBglghkgBhvhCAQ0EHxYdT3Bl
blNTTCBHZW5lcmF0ZWQgQ2VydGlmaWNhdGUwHQYDVR0OBBYEFIfybqRmRsUstRbc
c0GOjRaI43piMIGuBgNVHSMEgaYwgaOhgZWkgZIwgY8xCzAJBgNVBAYTAkZSMRYw
FAYDVQQIDA1JbGUgZGUgRnJhbmNlMQ4wDAYDVQQHDAVQYXJpczEQMA4GA1UECgwH
QWRhQ29yZTELMAkGA1UECwwCQ0ExFjAUBgNVBAMMDUNBLVdlYi1TZXJ2ZXIxITAf
BgkqhkiG9w0BCQEWEmNhLWF3c0BhZGFjb3JlLmNvbYIJAJJ5oYrcQKF8MA0GCSqG
SIb3DQEBBQUAA4IBAQCq8jGH89IOaR3v34P0nRS0+R5yq5ryrK/6cLfkrtV+pQ71
s9lKBj2RcrJY8xs4emgpAdkgduP3aeHP4E9XSURJj++aq2Atwz8hxoP41xt/ZnZE
SqGqUSXlYIoDpGO7mj8rH27AFlGflUBYj2/mYcnbSSX3kCuMOPOHNkOhNIgQeSud
840Zho94PyIVRbp37K4jwsNiOElePgZbcMvDa898y6rb2fAQ4mfNmHMeHDaRgAnM
e4AaXZ2LFeknY6Yn+Ksmp1HHx4Z85z4SNpQOpu9Ub8RfKNK7znXjD3JfyxuqRQ+E
e7gPIGncV9LKRc1xOKRlJGG5LOVGPfIbA5M+EFob
-----END CERTIFICATE-----
