Certificate:
    Data:
        Version: 3 (0x2)
        Serial Number: 44448 (0xada0)
    Signature Algorithm: sha256WithRSAEncryption
        Issuer: C=FR, ST=Ile de France, L=Paris, O=AdaCore, OU=CA, CN=CA-Web-Server/emailAddress=ca-aws@adacore.com
        Validity
            Not Before: Sep 24 06:22:41 2018 GMT
            Not After : Sep 23 06:22:41 2022 GMT
        Subject: C=FR, ST=Ile de France, O=AdaCore, OU=CRM, CN=localhost/emailAddress=aws-test@adacore.com
        Subject Public Key Info:
            Public Key Algorithm: rsaEncryption
                Public-Key: (2048 bit)
                Modulus:
                    00:ac:33:e4:20:a3:b5:83:b3:4c:be:5d:d1:df:9b:
                    23:58:43:8d:9b:2a:27:97:a4:6d:f3:d9:7d:2c:72:
                    42:30:84:56:74:66:8a:89:4d:7e:dc:97:aa:d7:75:
                    7a:d2:13:e8:1a:db:32:82:51:92:14:11:0f:1b:ed:
                    8c:c0:63:51:16:b5:be:1d:cc:44:8a:d6:41:62:87:
                    fa:4a:33:2d:6d:47:28:14:eb:0e:3c:c3:d8:a8:3d:
                    70:6b:68:c7:ef:61:dc:39:4e:cc:37:39:92:65:b0:
                    17:47:c5:a1:0d:7c:c3:9d:64:19:2f:40:9a:8a:50:
                    f0:3e:a5:aa:40:d3:10:14:2d:ed:d7:76:95:35:4f:
                    13:d5:e6:18:24:7d:d7:d6:e9:70:51:da:47:d4:a9:
                    63:d2:3c:aa:6b:f8:96:20:a2:b3:07:be:b7:04:ae:
                    d3:e5:f7:db:48:79:29:aa:4b:f9:52:1d:1a:60:2c:
                    81:66:d7:92:25:de:86:e3:c5:b9:2b:d4:ef:4d:6f:
                    31:99:d3:8f:6a:06:da:11:e3:f8:a2:87:c9:37:e2:
                    95:9e:23:82:a9:23:c8:52:e4:0b:81:44:5e:a7:42:
                    f4:44:a8:09:83:f8:7a:a9:fd:7a:5c:69:6b:30:a7:
                    42:1d:de:e0:4a:0b:fd:db:24:5c:14:2f:3e:82:f0:
                    c8:81
                Exponent: 65537 (0x10001)
        X509v3 extensions:
            X509v3 Basic Constraints: 
                CA:FALSE
            Netscape Comment: 
                OpenSSL Generated Certificate
            X509v3 Subject Key Identifier: 
                B7:B6:74:16:B7:EC:12:5F:7C:B2:71:B5:05:94:DE:DE:41:3A:1A:DA
            X509v3 Authority Key Identifier: 
                DirName:/C=FR/ST=Ile de France/L=Paris/O=AdaCore/OU=CA/CN=CA-Web-Server/emailAddress=ca-aws@adacore.com
                serial:DE:CA:82:E7:A1:30:D7:75

    Signature Algorithm: sha256WithRSAEncryption
         67:42:ff:f6:52:74:33:7f:8e:85:91:8f:5f:63:9e:7b:ce:ee:
         9b:59:6f:6d:45:30:37:dc:15:2c:fd:f6:65:28:d2:e3:17:5a:
         10:75:7d:c6:7f:e0:81:0e:b4:13:8c:ca:55:28:e9:ab:01:42:
         88:c5:1d:5b:50:3d:eb:54:b9:9b:bb:bf:0a:a6:bd:e0:76:38:
         37:96:2e:8d:ab:46:cb:f1:1a:b6:81:13:b3:2f:b9:1e:63:44:
         c2:b7:c6:92:2f:85:8c:d7:19:69:e4:3c:29:eb:16:af:3f:51:
         3a:15:53:3b:b1:2e:d8:65:38:58:46:42:9c:d9:00:eb:5e:77:
         3e:a2:8d:f1:07:6e:b3:ea:e3:ef:4c:5e:9e:a2:8d:d1:ed:91:
         2f:b4:0b:61:07:db:da:88:da:26:a1:b5:e6:7f:57:78:36:0d:
         92:4e:b5:22:37:65:26:b0:46:3a:e3:d7:ad:75:f7:4b:fc:a5:
         c0:2d:cc:ce:3b:ef:12:50:72:da:99:7b:ed:29:9c:a4:69:18:
         0f:3f:c6:8d:f6:4d:80:18:d4:41:fb:56:81:0c:25:93:a9:36:
         07:20:84:2b:87:72:47:fe:29:db:28:51:f4:e0:4b:9c:cf:f8:
         e1:c5:6f:3c:d2:6d:70:77:eb:29:8d:01:35:47:d6:b5:54:73:
         d2:d2:69:f6
-----BEGIN CERTIFICATE-----
MIIEmjCCA4KgAwIBAgIDAK2gMA0GCSqGSIb3DQEBCwUAMIGPMQswCQYDVQQGEwJG
UjEWMBQGA1UECAwNSWxlIGRlIEZyYW5jZTEOMAwGA1UEBwwFUGFyaXMxEDAOBgNV
BAoMB0FkYUNvcmUxCzAJBgNVBAsMAkNBMRYwFAYDVQQDDA1DQS1XZWItU2VydmVy
MSEwHwYJKoZIhvcNAQkBFhJjYS1hd3NAYWRhY29yZS5jb20wHhcNMTgwOTI0MDYy
MjQxWhcNMjIwOTIzMDYyMjQxWjB+MQswCQYDVQQGEwJGUjEWMBQGA1UECAwNSWxl
IGRlIEZyYW5jZTEQMA4GA1UECgwHQWRhQ29yZTEMMAoGA1UECwwDQ1JNMRIwEAYD
VQQDDAlsb2NhbGhvc3QxIzAhBgkqhkiG9w0BCQEWFGF3cy10ZXN0QGFkYWNvcmUu
Y29tMIIBIjANBgkqhkiG9w0BAQEFAAOCAQ8AMIIBCgKCAQEArDPkIKO1g7NMvl3R
35sjWEONmyonl6Rt89l9LHJCMIRWdGaKiU1+3Jeq13V60hPoGtsyglGSFBEPG+2M
wGNRFrW+HcxEitZBYof6SjMtbUcoFOsOPMPYqD1wa2jH72HcOU7MNzmSZbAXR8Wh
DXzDnWQZL0CailDwPqWqQNMQFC3t13aVNU8T1eYYJH3X1ulwUdpH1Klj0jyqa/iW
IKKzB763BK7T5ffbSHkpqkv5Uh0aYCyBZteSJd6G48W5K9TvTW8xmdOPagbaEeP4
oofJN+KVniOCqSPIUuQLgURep0L0RKgJg/h6qf16XGlrMKdCHd7gSgv92yRcFC8+
gvDIgQIDAQABo4IBDTCCAQkwCQYDVR0TBAIwADAsBglghkgBhvhCAQ0EHxYdT3Bl
blNTTCBHZW5lcmF0ZWQgQ2VydGlmaWNhdGUwHQYDVR0OBBYEFLe2dBa37BJffLJx
tQWU3t5BOhraMIGuBgNVHSMEgaYwgaOhgZWkgZIwgY8xCzAJBgNVBAYTAkZSMRYw
FAYDVQQIDA1JbGUgZGUgRnJhbmNlMQ4wDAYDVQQHDAVQYXJpczEQMA4GA1UECgwH
QWRhQ29yZTELMAkGA1UECwwCQ0ExFjAUBgNVBAMMDUNBLVdlYi1TZXJ2ZXIxITAf
BgkqhkiG9w0BCQEWEmNhLWF3c0BhZGFjb3JlLmNvbYIJAN7KguehMNd1MA0GCSqG
SIb3DQEBCwUAA4IBAQBnQv/2UnQzf46FkY9fY557zu6bWW9tRTA33BUs/fZlKNLj
F1oQdX3Gf+CBDrQTjMpVKOmrAUKIxR1bUD3rVLmbu78Kpr3gdjg3li6Nq0bL8Rq2
gROzL7keY0TCt8aSL4WM1xlp5Dwp6xavP1E6FVM7sS7YZThYRkKc2QDrXnc+oo3x
B26z6uPvTF6eoo3R7ZEvtAthB9vaiNomobXmf1d4Ng2STrUiN2UmsEY649etdfdL
/KXALczOO+8SUHLamXvtKZykaRgPP8aN9k2AGNRB+1aBDCWTqTYHIIQrh3JH/inb
KFH04Eucz/jhxW880m1wd+spjQE1R9a1VHPS0mn2
-----END CERTIFICATE-----
