Certificate:
    Data:
        Version: 3 (0x2)
        Serial Number: 44448 (0xada0)
        Signature Algorithm: sha256WithRSAEncryption
        Issuer: C=FR, ST=Ile de France, L=Paris, O=AdaCore, OU=CA, CN=CA-Web-Server/emailAddress=ca-aws@adacore.com
        Validity
            Not Before: Feb  7 21:46:34 2023 GMT
            Not After : Dec 16 21:46:34 2032 GMT
        Subject: C=FR, ST=Ile de France, O=AdaCore, OU=CRM, CN=localhost/emailAddress=aws-test@adacore.com
        Subject Public Key Info:
            Public Key Algorithm: rsaEncryption
                Public-Key: (2048 bit)
                Modulus:
                    00:8a:2d:55:91:50:12:cb:1c:64:ef:6f:b9:be:08:
                    f6:37:8d:65:1d:dc:58:46:7f:fb:6a:87:df:59:de:
                    a0:27:26:dd:bc:8d:75:0c:41:d3:39:73:d9:4f:9e:
                    80:95:cd:dc:ce:4a:6e:0d:96:2c:4d:26:c7:3e:54:
                    6c:c2:1f:34:bd:a4:0d:d4:b3:79:4c:21:97:00:9f:
                    b8:7b:1c:3a:78:93:19:f0:79:96:4e:97:fe:c1:1e:
                    6e:3e:fb:04:a0:81:35:5d:21:ba:85:90:76:03:34:
                    54:8f:ed:ba:2a:8d:7b:c2:cb:4b:04:8c:24:14:31:
                    65:21:6d:67:cf:d0:55:78:6f:e2:2e:fb:be:eb:6e:
                    91:db:98:6d:74:84:86:d5:27:c0:1d:bd:63:3a:ad:
                    fb:d9:73:89:cd:59:ac:b8:5c:48:57:00:aa:65:e7:
                    12:e4:cb:f3:94:5d:06:94:a7:24:53:d4:cb:c9:66:
                    a9:f4:7e:02:43:fc:d7:1a:1a:2e:00:31:71:01:87:
                    49:e9:6d:45:f9:1a:a0:ea:84:6f:12:27:60:38:d3:
                    37:34:87:09:5a:ff:e4:41:18:db:30:3a:c0:bf:0b:
                    c3:48:e7:76:74:4e:ad:d2:2e:eb:f7:c7:e2:d0:e2:
                    8c:61:1a:75:95:c4:fd:65:07:29:71:3a:a7:00:9a:
                    61:2f
                Exponent: 65537 (0x10001)
        X509v3 extensions:
            X509v3 Basic Constraints: 
                CA:FALSE
            X509v3 Subject Key Identifier: 
                9F:82:28:86:52:1B:00:09:CF:42:B3:11:89:34:8D:C2:3B:70:8A:2F
            X509v3 Authority Key Identifier: 
                DirName:/C=FR/ST=Ile de France/L=Paris/O=AdaCore/OU=CA/CN=CA-Web-Server/emailAddress=ca-aws@adacore.com
                serial:3E:F8:9E:E7:06:D1:A3:D2:95:B0:74:EC:7E:23:CD:2F:18:7D:F1:BA
    Signature Algorithm: sha256WithRSAEncryption
    Signature Value:
        71:f4:cc:28:2d:ce:a0:13:5c:a3:49:d5:47:26:d9:31:4b:c1:
        a3:df:1a:94:bc:df:e9:cc:a0:35:09:90:6e:f5:71:32:be:5a:
        96:02:33:a0:7e:2f:6e:6b:22:39:8a:cd:d5:b0:fa:4a:f9:85:
        2b:95:b8:a7:31:39:9c:7e:35:a0:a2:c2:cf:7f:b5:fa:a8:f6:
        18:33:c5:33:41:12:84:a5:31:28:95:ca:2a:96:6e:1d:bc:79:
        58:d7:e0:16:1d:ba:0d:fc:b9:92:d4:9d:9d:a6:90:f5:74:e2:
        4e:22:49:cb:34:85:d0:9e:47:24:82:8a:8a:29:9f:11:7c:54:
        72:c3:35:7b:60:74:0b:ff:7e:2f:0f:e7:81:12:63:f0:13:7a:
        42:24:a0:37:b3:05:de:e7:db:e4:7c:da:1e:b4:6f:53:02:5c:
        03:7f:64:e6:8f:c9:be:ca:63:45:94:e5:71:08:2c:7f:e1:08:
        45:9d:da:62:14:2d:1b:4b:a6:8d:07:c6:8a:e2:08:9a:9f:61:
        cc:b1:6b:75:99:14:61:20:64:21:d5:6b:50:18:3c:ec:55:1b:
        52:fb:a9:f7:f9:a4:b2:cb:cd:b0:dd:31:cd:48:46:21:ad:2a:
        91:25:9d:25:4b:7d:5a:dd:d7:74:31:fc:9c:e2:f0:7d:9f:00:
        07:a4:d9:e0
-----BEGIN CERTIFICATE-----
MIIEdTCCA12gAwIBAgIDAK2gMA0GCSqGSIb3DQEBCwUAMIGPMQswCQYDVQQGEwJG
UjEWMBQGA1UECAwNSWxlIGRlIEZyYW5jZTEOMAwGA1UEBwwFUGFyaXMxEDAOBgNV
BAoMB0FkYUNvcmUxCzAJBgNVBAsMAkNBMRYwFAYDVQQDDA1DQS1XZWItU2VydmVy
MSEwHwYJKoZIhvcNAQkBFhJjYS1hd3NAYWRhY29yZS5jb20wHhcNMjMwMjA3MjE0
NjM0WhcNMzIxMjE2MjE0NjM0WjB+MQswCQYDVQQGEwJGUjEWMBQGA1UECAwNSWxl
IGRlIEZyYW5jZTEQMA4GA1UECgwHQWRhQ29yZTEMMAoGA1UECwwDQ1JNMRIwEAYD
VQQDDAlsb2NhbGhvc3QxIzAhBgkqhkiG9w0BCQEWFGF3cy10ZXN0QGFkYWNvcmUu
Y29tMIIBIjANBgkqhkiG9w0BAQEFAAOCAQ8AMIIBCgKCAQEAii1VkVASyxxk72+5
vgj2N41lHdxYRn/7aoffWd6gJybdvI11DEHTOXPZT56Alc3czkpuDZYsTSbHPlRs
wh80vaQN1LN5TCGXAJ+4exw6eJMZ8HmWTpf+wR5uPvsEoIE1XSG6hZB2AzRUj+26
Ko17wstLBIwkFDFlIW1nz9BVeG/iLvu+626R25htdISG1SfAHb1jOq372XOJzVms
uFxIVwCqZecS5MvzlF0GlKckU9TLyWap9H4CQ/zXGhouADFxAYdJ6W1F+Rqg6oRv
EidgONM3NIcJWv/kQRjbMDrAvwvDSOd2dE6t0i7r98fi0OKMYRp1lcT9ZQcpcTqn
AJphLwIDAQABo4HpMIHmMAkGA1UdEwQCMAAwHQYDVR0OBBYEFJ+CKIZSGwAJz0Kz
EYk0jcI7cIovMIG5BgNVHSMEgbEwga6hgZWkgZIwgY8xCzAJBgNVBAYTAkZSMRYw
FAYDVQQIDA1JbGUgZGUgRnJhbmNlMQ4wDAYDVQQHDAVQYXJpczEQMA4GA1UECgwH
QWRhQ29yZTELMAkGA1UECwwCQ0ExFjAUBgNVBAMMDUNBLVdlYi1TZXJ2ZXIxITAf
BgkqhkiG9w0BCQEWEmNhLWF3c0BhZGFjb3JlLmNvbYIUPvie5wbRo9KVsHTsfiPN
Lxh98bowDQYJKoZIhvcNAQELBQADggEBAHH0zCgtzqATXKNJ1Ucm2TFLwaPfGpS8
3+nMoDUJkG71cTK+WpYCM6B+L25rIjmKzdWw+kr5hSuVuKcxOZx+NaCiws9/tfqo
9hgzxTNBEoSlMSiVyiqWbh28eVjX4BYdug38uZLUnZ2mkPV04k4iScs0hdCeRySC
ioopnxF8VHLDNXtgdAv/fi8P54ESY/ATekIkoDezBd7n2+R82h60b1MCXAN/ZOaP
yb7KY0WU5XEILH/hCEWd2mIULRtLpo0HxoriCJqfYcyxa3WZFGEgZCHVa1AYPOxV
G1L7qff5pLLLzbDdMc1IRiGtKpElnSVLfVrd13Qx/Jzi8H2fAAek2eA=
-----END CERTIFICATE-----
