Certificate:
    Data:
        Version: 3 (0x2)
        Serial Number: 44449 (0xada1)
    Signature Algorithm: sha1WithRSAEncryption
        Issuer: C=FR, ST=Ile de France, L=Paris, O=AdaCore, OU=CA, CN=CA-Web-Client/emailAddress=aws-clt@adacore.com
        Validity
            Not Before: Jul  7 07:45:33 2016 GMT
            Not After : Oct 14 07:45:33 2020 GMT
        Subject: C=FR, ST=Ile de France, O=AdaCore, OU=CRM, CN=test-client-cert/emailAddress=aws-test@adacore.com
        Subject Public Key Info:
            Public Key Algorithm: rsaEncryption
                Public-Key: (2048 bit)
                Modulus:
                    00:9e:fe:77:97:0d:9a:91:d0:8c:c0:86:21:84:a4:
                    12:91:6a:01:4c:ec:3c:db:ad:c9:8c:ff:ab:83:b0:
                    10:2d:69:6a:3c:96:f0:cd:2a:04:83:99:f3:55:73:
                    21:5e:bf:63:52:a1:47:42:8a:a7:e0:85:1d:a5:aa:
                    92:43:e6:be:3a:b6:6a:75:4d:ee:1e:cf:24:f8:3a:
                    14:af:70:80:92:83:af:cf:1e:3e:b3:75:79:11:7f:
                    8d:cf:a3:6d:d1:5c:ec:ea:96:ee:89:57:ae:94:3a:
                    70:3b:12:d4:88:d2:64:0b:92:da:73:19:05:04:9b:
                    2b:76:e0:48:b0:40:ba:16:a7:d7:e4:c0:6f:9b:c2:
                    7e:b5:2c:03:3d:03:e0:62:ed:f8:03:a9:43:ea:d0:
                    19:41:69:a5:61:37:42:42:f8:c2:d8:3c:51:64:13:
                    c1:02:cd:ab:aa:73:93:9a:33:5c:85:6c:92:30:c1:
                    10:d5:9d:3b:c7:18:ef:2d:4e:11:f0:20:06:7b:79:
                    c7:2b:89:12:07:6e:cb:d2:f4:45:68:ab:01:8e:38:
                    b0:03:15:86:61:6c:2c:0a:6e:98:74:4c:f7:81:1d:
                    22:c5:21:f5:c6:f8:d5:fb:cc:1e:eb:57:54:1a:d8:
                    f7:94:cf:3d:7d:a1:09:31:b2:ca:c3:92:ac:14:f9:
                    2b:e5
                Exponent: 65537 (0x10001)
        X509v3 extensions:
            X509v3 Basic Constraints: 
                CA:FALSE
            Netscape Comment: 
                OpenSSL Generated Certificate
            X509v3 Subject Key Identifier: 
                91:80:A6:37:48:69:CC:F1:38:E3:5A:8A:AC:18:C3:D1:DB:33:25:CD
            X509v3 Authority Key Identifier: 
                DirName:/C=FR/ST=Ile de France/L=Paris/O=AdaCore/OU=CA/CN=CA-Web-Client/emailAddress=aws-clt@adacore.com
                serial:DD:6B:6F:1C:B9:DC:1A:E8

    Signature Algorithm: sha1WithRSAEncryption
         97:85:9e:a0:5f:c3:03:63:2f:3b:cc:17:3c:cb:af:58:da:4d:
         e0:68:34:45:15:d0:80:6d:e2:36:46:15:b5:c7:00:b1:c5:ce:
         e0:72:f8:73:da:bc:21:97:e2:07:31:8c:c7:0c:22:eb:e3:ec:
         90:79:e9:6c:a7:d0:ac:0f:2e:83:5d:e3:ec:92:bd:00:71:05:
         0a:1d:e2:50:45:d4:c5:3b:1c:d6:0b:ef:cd:d8:a4:74:5a:14:
         cb:24:eb:e6:0f:74:de:97:7b:6d:26:cf:c9:b5:c3:75:22:e7:
         7e:eb:e9:ad:39:8b:92:5b:76:ec:21:da:c4:03:f8:f0:e2:38:
         97:a5:5e:48:c4:69:d2:56:13:69:6e:43:f9:5d:c4:d0:d5:56:
         1e:37:7c:e9:ce:ba:8c:49:7e:c1:46:dc:a2:5a:44:df:1b:be:
         36:38:5a:d1:89:f0:6f:9a:b7:62:4b:a5:11:44:bf:d3:db:6d:
         91:dc:3a:b9:1d:10:d5:35:eb:4e:e1:0c:14:8d:4b:b0:a6:42:
         39:ca:fd:c9:c7:ff:b3:b9:10:5d:9f:dc:9a:54:34:64:e3:fb:
         73:7b:22:59:f3:48:e4:90:1b:29:e8:61:4c:93:cf:21:ff:51:
         88:a9:82:b0:ac:3d:98:78:98:76:ba:bb:d1:44:b9:b3:06:42:
         a3:ad:0a:0b
-----BEGIN CERTIFICATE-----
MIIEpDCCA4ygAwIBAgIDAK2hMA0GCSqGSIb3DQEBBQUAMIGQMQswCQYDVQQGEwJG
UjEWMBQGA1UECAwNSWxlIGRlIEZyYW5jZTEOMAwGA1UEBwwFUGFyaXMxEDAOBgNV
BAoMB0FkYUNvcmUxCzAJBgNVBAsMAkNBMRYwFAYDVQQDDA1DQS1XZWItQ2xpZW50
MSIwIAYJKoZIhvcNAQkBFhNhd3MtY2x0QGFkYWNvcmUuY29tMB4XDTE2MDcwNzA3
NDUzM1oXDTIwMTAxNDA3NDUzM1owgYUxCzAJBgNVBAYTAkZSMRYwFAYDVQQIDA1J
bGUgZGUgRnJhbmNlMRAwDgYDVQQKDAdBZGFDb3JlMQwwCgYDVQQLDANDUk0xGTAX
BgNVBAMMEHRlc3QtY2xpZW50LWNlcnQxIzAhBgkqhkiG9w0BCQEWFGF3cy10ZXN0
QGFkYWNvcmUuY29tMIIBIjANBgkqhkiG9w0BAQEFAAOCAQ8AMIIBCgKCAQEAnv53
lw2akdCMwIYhhKQSkWoBTOw8263JjP+rg7AQLWlqPJbwzSoEg5nzVXMhXr9jUqFH
Qoqn4IUdpaqSQ+a+OrZqdU3uHs8k+DoUr3CAkoOvzx4+s3V5EX+Nz6Nt0Vzs6pbu
iVeulDpwOxLUiNJkC5LacxkFBJsrduBIsEC6FqfX5MBvm8J+tSwDPQPgYu34A6lD
6tAZQWmlYTdCQvjC2DxRZBPBAs2rqnOTmjNchWySMMEQ1Z07xxjvLU4R8CAGe3nH
K4kSB27L0vRFaKsBjjiwAxWGYWwsCm6YdEz3gR0ixSH1xvjV+8we61dUGtj3lM89
faEJMbLKw5KsFPkr5QIDAQABo4IBDjCCAQowCQYDVR0TBAIwADAsBglghkgBhvhC
AQ0EHxYdT3BlblNTTCBHZW5lcmF0ZWQgQ2VydGlmaWNhdGUwHQYDVR0OBBYEFJGA
pjdIaczxOONaiqwYw9HbMyXNMIGvBgNVHSMEgacwgaShgZakgZMwgZAxCzAJBgNV
BAYTAkZSMRYwFAYDVQQIDA1JbGUgZGUgRnJhbmNlMQ4wDAYDVQQHDAVQYXJpczEQ
MA4GA1UECgwHQWRhQ29yZTELMAkGA1UECwwCQ0ExFjAUBgNVBAMMDUNBLVdlYi1D
bGllbnQxIjAgBgkqhkiG9w0BCQEWE2F3cy1jbHRAYWRhY29yZS5jb22CCQDda28c
udwa6DANBgkqhkiG9w0BAQUFAAOCAQEAl4WeoF/DA2MvO8wXPMuvWNpN4Gg0RRXQ
gG3iNkYVtccAscXO4HL4c9q8IZfiBzGMxwwi6+PskHnpbKfQrA8ug13j7JK9AHEF
Ch3iUEXUxTsc1gvvzdikdFoUyyTr5g903pd7bSbPybXDdSLnfuvprTmLklt27CHa
xAP48OI4l6VeSMRp0lYTaW5D+V3E0NVWHjd86c66jEl+wUbcolpE3xu+Njha0Ynw
b5q3YkulEUS/09ttkdw6uR0Q1TXrTuEMFI1LsKZCOcr9ycf/s7kQXZ/cmlQ0ZOP7
c3siWfNI5JAbKehhTJPPIf9RiKmCsKw9mHiYdrq70US5swZCo60KCw==
-----END CERTIFICATE-----
-----BEGIN PRIVATE KEY-----
MIIEvgIBADANBgkqhkiG9w0BAQEFAASCBKgwggSkAgEAAoIBAQCe/neXDZqR0IzA
hiGEpBKRagFM7DzbrcmM/6uDsBAtaWo8lvDNKgSDmfNVcyFev2NSoUdCiqfghR2l
qpJD5r46tmp1Te4ezyT4OhSvcICSg6/PHj6zdXkRf43Po23RXOzqlu6JV66UOnA7
EtSI0mQLktpzGQUEmyt24EiwQLoWp9fkwG+bwn61LAM9A+Bi7fgDqUPq0BlBaaVh
N0JC+MLYPFFkE8ECzauqc5OaM1yFbJIwwRDVnTvHGO8tThHwIAZ7eccriRIHbsvS
9EVoqwGOOLADFYZhbCwKbph0TPeBHSLFIfXG+NX7zB7rV1Qa2PeUzz19oQkxssrD
kqwU+SvlAgMBAAECggEANGZLRaY/HfVsnfrWyx9D21bjbNWizQe+mFCe1zzMaBsI
30UjwYoqiLDRSIU0J0TOWCo9EQoff9h/R90qbWR7p1/9QAHaC59bYM/Lh3J9fUwX
QhyGr6B0sTanpxoGlGyazEnH/c2/BK0p1d5D23/zZvkUM8C4LadyMLCEZEpAyjwr
yXbhmyXN2BKOA/3CaqzjwMc1ZFxTn/0mJ8vVk+i11fDQ+ubZguu8osIeA1L/X7ye
jqu3O1RqYAcoe9eW/mmzW7ObFkoiPYv42bzWONjHSsWBq4zThXLeJtXYUIudoFWg
ZWT/MjckczUqDOPZm5reQzeXfLYVfhyX/THLs0ZOYQKBgQDSjTaU/OtOnjKTXymw
Qb2t6dfUhgMboqT2GIemy6HfTayTgI0pIbQX9tBf5kCkCuXIT9iFvL2/4V36GNwp
8CieKSgKN2ZJlbEr/ALMEnk0sEBpMwwltB831dn26AZ/Txeb29z26etVJrJ7Umjh
tE89h1CNoyihJ4UfSnMza8LOTQKBgQDBUEDRk6WlGR1reYlHV+VLU1mhCWX7TiOb
3s7/9zkwkvsXAqPsToGofCXCRSzrY0i2zfoS/wn3avf6sqlpuW+5U/SRomYrYUyG
KK5dvHgJM3y+434NRLLUfexcWVipMZ2Ys4/G9w2K80HZ54mo9q5mUIKT+RQMuf7y
SzKLCAgP+QKBgCI9uNyt7Q6SB6OT3FG/vzsjRmhXivXZk346KwVjJGYOWbx7MXm4
83LaPrT52xVSeGAFLC9DrJAh9IiRtmxTlCd0hgBzVf0tjOycRVAuyOtapn71QEp5
aoJIEvRmc3gMwsgkD2FQVWc5rdkEY+4gxqo48U63dAoRRUL7dpSsN7gZAoGBAK3Y
d0JCDnAn4t45QSxorisMfQkmQ5E5lypguDVW5hZ5x9bMqBAmFdIoO2i2/wt8kPLc
z6zvsM3RY8sPiu0qN4AqMUIbEtimOsRXp19i02wq4l9khIJ4Kn6P89SlAOe/V+Pw
bzdWC9bOpoTJBXJuzS3z70oVcGN1jQHmgECp6145AoGBAIKxvzYR1nxZG4zIqzra
QJB44PowQvCaRt6o0/ciBv/RyYC4NjazyzKjO8vy637357e+of8tmtqqKqyRnbFe
7e4emg6tXkS2Sb+/7zNzNdeigqr3qqvVl1yj4Sy98xAFTVJ/u5UiBu94RNo1yGff
Fft9D74cpfNNCfIIigDDFV7W
-----END PRIVATE KEY-----
