Certificate:
    Data:
        Version: 3 (0x2)
        Serial Number: 44449 (0xada1)
        Signature Algorithm: sha256WithRSAEncryption
        Issuer: C=FR, ST=Ile de France, L=Paris, O=AdaCore, OU=CA, CN=CA-Web-Client/emailAddress=aws-clt@adacore.com
        Validity
            Not Before: Feb  7 21:46:34 2023 GMT
            Not After : Dec 16 21:46:34 2032 GMT
        Subject: C=FR, ST=Ile de France, O=AdaCore, OU=CRM, CN=test-client-cert/emailAddress=aws-test@adacore.com
        Subject Public Key Info:
            Public Key Algorithm: rsaEncryption
                Public-Key: (2048 bit)
                Modulus:
                    00:d1:1d:7a:27:2f:7a:4e:34:ac:03:dd:3e:b8:d6:
                    f8:ba:c3:9a:d7:c8:35:6a:e2:8d:6c:ea:a5:fa:75:
                    9d:ab:6c:cd:33:53:97:8b:f2:96:f7:13:2b:6b:c1:
                    a0:69:2b:a7:7b:c0:38:a3:72:12:43:0a:42:9d:38:
                    4e:ab:35:22:cf:40:20:b1:f0:48:6c:54:14:32:0c:
                    49:0c:4c:75:96:50:01:99:15:28:33:12:06:6d:e0:
                    f6:6d:21:77:3a:6f:e4:ab:22:15:d1:00:2d:60:03:
                    93:c3:b0:d4:48:b9:24:d0:09:9c:93:fc:8f:a8:b8:
                    f6:50:5d:c2:45:af:26:55:cc:58:b8:1c:72:07:bc:
                    ff:da:ae:03:63:b6:9d:d0:3f:fe:23:54:14:28:48:
                    4a:62:0e:f2:93:4d:ef:eb:83:69:88:ec:d5:78:30:
                    ee:d4:b6:16:93:83:28:a8:e6:88:bf:7f:4e:e8:ea:
                    4d:40:3a:49:e0:f2:d5:73:ce:6b:d6:47:98:a7:ef:
                    11:f8:ae:e6:3b:53:03:d3:22:d6:5a:20:62:20:62:
                    ef:50:bd:58:1f:ab:04:04:64:2b:7d:b3:67:f6:fd:
                    ae:5d:03:1d:54:01:fe:74:f3:d9:c7:c1:92:49:99:
                    9a:70:12:39:88:01:b3:77:45:94:85:66:a4:30:7b:
                    3a:fb
                Exponent: 65537 (0x10001)
        X509v3 extensions:
            X509v3 Basic Constraints: 
                CA:FALSE
            X509v3 Subject Key Identifier: 
                B3:ED:52:63:B0:85:EE:9D:F2:78:66:FB:93:AA:EB:FC:EE:E6:51:F6
            X509v3 Authority Key Identifier: 
                DirName:/C=FR/ST=Ile de France/L=Paris/O=AdaCore/OU=CA/CN=CA-Web-Client/emailAddress=aws-clt@adacore.com
                serial:77:C8:93:DF:16:AE:4B:47:15:7B:19:79:1E:FA:FE:63:BD:E0:81:F6
    Signature Algorithm: sha256WithRSAEncryption
    Signature Value:
        0d:1b:38:a2:13:13:62:3d:3f:82:93:44:56:0f:24:34:38:8f:
        94:9c:e3:b9:f2:63:3f:9f:0d:6c:3c:bd:84:28:56:16:0d:da:
        c8:71:c1:54:3d:ac:47:a1:3c:fe:88:cf:29:09:e9:9b:7e:fd:
        58:3e:3a:ac:1c:ec:46:f4:53:13:cb:90:74:9e:cc:66:fe:31:
        ee:64:90:69:7d:af:04:fd:a8:b6:a5:47:81:77:eb:14:e3:00:
        02:a1:bd:a6:b7:71:4b:23:e4:b5:2c:b4:70:b9:7b:c9:88:7c:
        89:10:e0:57:93:2d:eb:13:43:67:76:cb:b7:77:fe:73:2c:3f:
        5d:e6:d4:49:3b:59:04:37:ea:b2:23:d4:39:a2:25:5d:dd:78:
        b6:8e:38:2d:62:a9:3a:63:df:11:50:b5:65:5e:b6:72:77:7c:
        63:99:10:70:0c:4c:62:b6:74:1d:1f:91:e7:f3:d3:44:e9:01:
        d6:82:49:d0:c0:a6:4f:40:68:d1:23:82:74:f9:cb:b7:26:82:
        66:f0:6b:81:55:7e:42:26:9d:f6:b0:9e:9b:d2:d4:e3:ab:28:
        b8:29:8e:48:85:e1:b5:72:3c:12:4a:48:70:95:f5:2d:d7:49:
        ea:48:ec:08:d3:7c:b7:68:19:03:45:85:a0:66:c8:c0:ab:05:
        3e:03:ae:76
-----BEGIN CERTIFICATE-----
MIIEfzCCA2egAwIBAgIDAK2hMA0GCSqGSIb3DQEBCwUAMIGQMQswCQYDVQQGEwJG
UjEWMBQGA1UECAwNSWxlIGRlIEZyYW5jZTEOMAwGA1UEBwwFUGFyaXMxEDAOBgNV
BAoMB0FkYUNvcmUxCzAJBgNVBAsMAkNBMRYwFAYDVQQDDA1DQS1XZWItQ2xpZW50
MSIwIAYJKoZIhvcNAQkBFhNhd3MtY2x0QGFkYWNvcmUuY29tMB4XDTIzMDIwNzIx
NDYzNFoXDTMyMTIxNjIxNDYzNFowgYUxCzAJBgNVBAYTAkZSMRYwFAYDVQQIDA1J
bGUgZGUgRnJhbmNlMRAwDgYDVQQKDAdBZGFDb3JlMQwwCgYDVQQLDANDUk0xGTAX
BgNVBAMMEHRlc3QtY2xpZW50LWNlcnQxIzAhBgkqhkiG9w0BCQEWFGF3cy10ZXN0
QGFkYWNvcmUuY29tMIIBIjANBgkqhkiG9w0BAQEFAAOCAQ8AMIIBCgKCAQEA0R16
Jy96TjSsA90+uNb4usOa18g1auKNbOql+nWdq2zNM1OXi/KW9xMra8GgaSune8A4
o3ISQwpCnThOqzUiz0AgsfBIbFQUMgxJDEx1llABmRUoMxIGbeD2bSF3Om/kqyIV
0QAtYAOTw7DUSLkk0Amck/yPqLj2UF3CRa8mVcxYuBxyB7z/2q4DY7ad0D/+I1QU
KEhKYg7yk03v64NpiOzVeDDu1LYWk4MoqOaIv39O6OpNQDpJ4PLVc85r1keYp+8R
+K7mO1MD0yLWWiBiIGLvUL1YH6sEBGQrfbNn9v2uXQMdVAH+dPPZx8GSSZmacBI5
iAGzd0WUhWakMHs6+wIDAQABo4HqMIHnMAkGA1UdEwQCMAAwHQYDVR0OBBYEFLPt
UmOwhe6d8nhm+5Oq6/zu5lH2MIG6BgNVHSMEgbIwga+hgZakgZMwgZAxCzAJBgNV
BAYTAkZSMRYwFAYDVQQIDA1JbGUgZGUgRnJhbmNlMQ4wDAYDVQQHDAVQYXJpczEQ
MA4GA1UECgwHQWRhQ29yZTELMAkGA1UECwwCQ0ExFjAUBgNVBAMMDUNBLVdlYi1D
bGllbnQxIjAgBgkqhkiG9w0BCQEWE2F3cy1jbHRAYWRhY29yZS5jb22CFHfIk98W
rktHFXsZeR76/mO94IH2MA0GCSqGSIb3DQEBCwUAA4IBAQANGziiExNiPT+Ck0RW
DyQ0OI+UnOO58mM/nw1sPL2EKFYWDdrIccFUPaxHoTz+iM8pCembfv1YPjqsHOxG
9FMTy5B0nsxm/jHuZJBpfa8E/ai2pUeBd+sU4wACob2mt3FLI+S1LLRwuXvJiHyJ
EOBXky3rE0Nndsu3d/5zLD9d5tRJO1kEN+qyI9Q5oiVd3Xi2jjgtYqk6Y98RULVl
XrZyd3xjmRBwDExitnQdH5Hn89NE6QHWgknQwKZPQGjRI4J0+cu3JoJm8GuBVX5C
Jp32sJ6b0tTjqyi4KY5IheG1cjwSSkhwlfUt10nqSOwI03y3aBkDRYWgZsjAqwU+
A652
-----END CERTIFICATE-----
-----BEGIN PRIVATE KEY-----
MIIEvQIBADANBgkqhkiG9w0BAQEFAASCBKcwggSjAgEAAoIBAQDRHXonL3pONKwD
3T641vi6w5rXyDVq4o1s6qX6dZ2rbM0zU5eL8pb3EytrwaBpK6d7wDijchJDCkKd
OE6rNSLPQCCx8EhsVBQyDEkMTHWWUAGZFSgzEgZt4PZtIXc6b+SrIhXRAC1gA5PD
sNRIuSTQCZyT/I+ouPZQXcJFryZVzFi4HHIHvP/argNjtp3QP/4jVBQoSEpiDvKT
Te/rg2mI7NV4MO7UthaTgyio5oi/f07o6k1AOkng8tVzzmvWR5in7xH4ruY7UwPT
ItZaIGIgYu9QvVgfqwQEZCt9s2f2/a5dAx1UAf5089nHwZJJmZpwEjmIAbN3RZSF
ZqQwezr7AgMBAAECggEAAjmcvHYA3dF+/buI7fvmQaEl203suOptiXnQXPiLaPDg
w2m29GzsYPdPQEzwdq4EO4jcEWvRTe1PWs+SkWJ2BbEvp9+1UDxvdT40OMac1FtI
Pmdp5ME4WEr11EtwMqr7dTwI8g8HwecdLLk2SQp58yIRtxwPhe1nPDZYhC1M7HTE
lUwHbP7N8N4XTBYwXMLMgbGPqDWZ3BEgP0jk5pLL5sIW9MaOrY0bAFMav54w7UdY
hGS7GQoSocbfyQI0WLJdOpEk0dkhPSac2vHA33aYaMUqdgU1Yo3kyrxsQGOIYuK6
EDC5FV4kajRijMYAFWGC5qFntS5ZjfCsSilD2fXrIQKBgQDhX/jJQCmU7QFfgkIS
7ktez54hBg4hN7nLn2viAQ8j9hmDhzSLsIrlyQyhVqlouLlI3C8YGPzybabwR7fN
/Hm1zJFRleaE/LZlcWCG8wwyrvhyla8IrE4kNTfhc1Vhs7NNidn45Y9tPsQQDdmL
psCR2qpAgjm1k0Pq2sVXC8dvLQKBgQDth+JK6YKtIQ73Rb5KKrUDfYlmfcnMh7T5
xPaLa0yxqw7lsUlv0/kPeG+Gz7DuyIJOGX063eB12oOcxYuYYWAGP1Qv3mVZjfZv
zHze3T1ZSDXnvKVKJ0Sj3G69wAuBtDKI3t1LT+TxBexzpCrFRb/3Zk2pRCtU6Y1T
dLShnmxrxwKBgAJrxYBj8A5pfVpJS+xoIuch09EG/5/buWM2kzIaUM9SFXQUP7xA
aT2Oq1QQWkGFunfN5bOckRsJkoGCQ7cyvxv01prJwXAsRslQLnlEoxzoREL22Kp/
L1e0OqVxV7l09LgggvbpgGDsC68gdvXJFMh8UNfgjj4lFtWvA++rcLkBAoGAW1He
okZcQwtuoYpiukjpBsqAxLKfns6duVkMIFXESpolRBGA1kl8e4Il/oJi16qmzjfm
eXdMEINODju0i4UEUeKPD0hFVsTJdfn8GAKez3B/qPRR58xpC0Z4HON0iQ0qUIy+
L3Ir5q4MVflLqEREpWzjdqwKrL6N4wP/XhN2Q4kCgYEAszdfXcaBuEhdWTgQ4nsU
5cVMvjBMsbkbTO0+uVf5iO+dm03RgQT3ko1YjAt5OqkXBuBlFET4pIdxHMBbO33K
NL71L5WpWshb0kcgcQGFKdgiR9rSuNpDwXOL1thmIqoYmWN5dkcvnXXfLf1Xsg3q
gAcNWZh+YFxG0T+n1ppNw7A=
-----END PRIVATE KEY-----
