Certificate:
    Data:
        Version: 3 (0x2)
        Serial Number: 44449 (0xada1)
    Signature Algorithm: sha256WithRSAEncryption
        Issuer: C=FR, ST=Ile de France, L=Paris, O=AdaCore, OU=CA, CN=CA-Web-Client/emailAddress=aws-clt@adacore.com
        Validity
            Not Before: Sep 24 06:22:41 2018 GMT
            Not After : Sep 23 06:22:41 2022 GMT
        Subject: C=FR, ST=Ile de France, O=AdaCore, OU=CRM, CN=test-client-cert/emailAddress=aws-test@adacore.com
        Subject Public Key Info:
            Public Key Algorithm: rsaEncryption
                Public-Key: (2048 bit)
                Modulus:
                    00:e7:3b:fe:03:fa:73:cc:bb:d6:0e:4d:d9:10:90:
                    d4:1f:c7:99:53:4f:7e:ff:94:24:04:2d:34:37:61:
                    09:1c:b5:bb:de:6e:64:80:bc:88:ea:50:1d:18:af:
                    a4:03:ac:b3:7f:4a:41:55:8a:b8:52:9a:66:57:7b:
                    ee:a9:22:8c:53:b8:2d:0f:0f:06:aa:2d:2a:7a:73:
                    a7:93:1b:64:a6:11:59:8e:f9:95:0d:5a:7f:63:50:
                    77:4a:67:f9:45:b1:11:6b:41:9f:a3:9c:a9:ac:c7:
                    bc:fc:96:cc:88:cb:55:95:b7:5f:20:01:42:af:e5:
                    ff:6d:cc:8d:2a:76:a4:72:10:ac:88:12:5a:0f:05:
                    b0:ad:63:d8:75:9c:5d:42:b7:ae:9e:b1:aa:3a:a5:
                    2f:be:84:b2:1a:d9:24:36:47:fb:6a:2c:d6:21:45:
                    d5:3a:cd:44:9a:6f:ec:9b:d0:88:1d:2d:fa:5b:80:
                    9b:68:06:4a:52:65:c2:f2:ab:e4:9a:77:f4:52:1d:
                    c1:ad:c3:2c:3f:1b:a5:5c:b9:63:5b:72:60:83:f4:
                    a1:90:89:6f:42:0f:5e:f8:ff:87:eb:36:f6:a4:67:
                    a6:fb:7b:ac:9d:2f:9b:ef:bf:28:f0:da:36:0b:56:
                    f6:f0:71:32:bc:0d:ab:0b:9d:92:95:7e:1f:24:b0:
                    16:79
                Exponent: 65537 (0x10001)
        X509v3 extensions:
            X509v3 Basic Constraints: 
                CA:FALSE
            Netscape Comment: 
                OpenSSL Generated Certificate
            X509v3 Subject Key Identifier: 
                8C:E0:49:0F:8D:65:48:9D:AA:25:86:C0:06:FE:80:35:CF:70:B0:60
            X509v3 Authority Key Identifier: 
                DirName:/C=FR/ST=Ile de France/L=Paris/O=AdaCore/OU=CA/CN=CA-Web-Client/emailAddress=aws-clt@adacore.com
                serial:87:16:4D:5C:C1:3E:FF:15

    Signature Algorithm: sha256WithRSAEncryption
         6e:8d:1d:93:25:8d:13:ec:0b:a1:78:56:ff:91:69:84:e0:ca:
         c1:13:f6:08:2d:8f:5f:59:47:98:01:a9:f9:c1:f9:ec:84:2b:
         ee:30:d8:05:81:fc:73:87:e3:d5:70:a1:6c:32:0c:be:63:23:
         12:e6:e5:95:ca:0e:fe:d5:ad:c0:2a:7a:b0:15:fb:26:cb:a4:
         9a:0d:03:f8:c7:47:3e:b5:42:37:b3:10:c0:3f:87:1d:18:59:
         30:77:94:b1:b8:46:6e:51:90:5d:a6:00:d9:cc:52:4a:3d:da:
         d2:f8:2b:18:5a:08:92:52:e7:5a:3b:ac:8d:e7:d0:68:92:c3:
         4c:10:1f:25:2b:38:bb:89:40:98:07:fa:3b:3c:81:66:1e:26:
         d6:1e:e2:cb:1f:23:63:eb:eb:90:9a:89:57:a7:68:9c:39:63:
         24:1a:af:60:95:53:7a:27:68:bd:83:ed:fb:ea:9c:b9:ab:bc:
         d5:ff:ab:92:21:fd:fe:20:4b:71:bf:55:14:56:80:6a:c3:4e:
         e0:fe:5d:ea:45:7f:4c:fc:9b:59:e4:8a:58:98:7b:bf:68:bb:
         62:3a:e2:17:d5:06:cb:eb:8a:04:06:34:ce:8e:f2:f7:0e:9b:
         71:04:6c:4d:ec:9f:45:ef:f6:41:76:f9:8f:83:04:2e:76:3d:
         c8:4e:9b:d7
-----BEGIN CERTIFICATE-----
MIIEpDCCA4ygAwIBAgIDAK2hMA0GCSqGSIb3DQEBCwUAMIGQMQswCQYDVQQGEwJG
UjEWMBQGA1UECAwNSWxlIGRlIEZyYW5jZTEOMAwGA1UEBwwFUGFyaXMxEDAOBgNV
BAoMB0FkYUNvcmUxCzAJBgNVBAsMAkNBMRYwFAYDVQQDDA1DQS1XZWItQ2xpZW50
MSIwIAYJKoZIhvcNAQkBFhNhd3MtY2x0QGFkYWNvcmUuY29tMB4XDTE4MDkyNDA2
MjI0MVoXDTIyMDkyMzA2MjI0MVowgYUxCzAJBgNVBAYTAkZSMRYwFAYDVQQIDA1J
bGUgZGUgRnJhbmNlMRAwDgYDVQQKDAdBZGFDb3JlMQwwCgYDVQQLDANDUk0xGTAX
BgNVBAMMEHRlc3QtY2xpZW50LWNlcnQxIzAhBgkqhkiG9w0BCQEWFGF3cy10ZXN0
QGFkYWNvcmUuY29tMIIBIjANBgkqhkiG9w0BAQEFAAOCAQ8AMIIBCgKCAQEA5zv+
A/pzzLvWDk3ZEJDUH8eZU09+/5QkBC00N2EJHLW73m5kgLyI6lAdGK+kA6yzf0pB
VYq4UppmV3vuqSKMU7gtDw8Gqi0qenOnkxtkphFZjvmVDVp/Y1B3Smf5RbERa0Gf
o5yprMe8/JbMiMtVlbdfIAFCr+X/bcyNKnakchCsiBJaDwWwrWPYdZxdQreunrGq
OqUvvoSyGtkkNkf7aizWIUXVOs1Emm/sm9CIHS36W4CbaAZKUmXC8qvkmnf0Uh3B
rcMsPxulXLljW3Jgg/ShkIlvQg9e+P+H6zb2pGem+3usnS+b778o8No2C1b28HEy
vA2rC52SlX4fJLAWeQIDAQABo4IBDjCCAQowCQYDVR0TBAIwADAsBglghkgBhvhC
AQ0EHxYdT3BlblNTTCBHZW5lcmF0ZWQgQ2VydGlmaWNhdGUwHQYDVR0OBBYEFIzg
SQ+NZUidqiWGwAb+gDXPcLBgMIGvBgNVHSMEgacwgaShgZakgZMwgZAxCzAJBgNV
BAYTAkZSMRYwFAYDVQQIDA1JbGUgZGUgRnJhbmNlMQ4wDAYDVQQHDAVQYXJpczEQ
MA4GA1UECgwHQWRhQ29yZTELMAkGA1UECwwCQ0ExFjAUBgNVBAMMDUNBLVdlYi1D
bGllbnQxIjAgBgkqhkiG9w0BCQEWE2F3cy1jbHRAYWRhY29yZS5jb22CCQCHFk1c
wT7/FTANBgkqhkiG9w0BAQsFAAOCAQEAbo0dkyWNE+wLoXhW/5FphODKwRP2CC2P
X1lHmAGp+cH57IQr7jDYBYH8c4fj1XChbDIMvmMjEubllcoO/tWtwCp6sBX7Jsuk
mg0D+MdHPrVCN7MQwD+HHRhZMHeUsbhGblGQXaYA2cxSSj3a0vgrGFoIklLnWjus
jefQaJLDTBAfJSs4u4lAmAf6OzyBZh4m1h7iyx8jY+vrkJqJV6donDljJBqvYJVT
eidovYPt++qcuau81f+rkiH9/iBLcb9VFFaAasNO4P5d6kV/TPybWeSKWJh7v2i7
YjriF9UGy+uKBAY0zo7y9w6bcQRsTeyfRe/2QXb5j4MELnY9yE6b1w==
-----END CERTIFICATE-----
-----BEGIN PRIVATE KEY-----
MIIEvQIBADANBgkqhkiG9w0BAQEFAASCBKcwggSjAgEAAoIBAQDnO/4D+nPMu9YO
TdkQkNQfx5lTT37/lCQELTQ3YQkctbvebmSAvIjqUB0Yr6QDrLN/SkFVirhSmmZX
e+6pIoxTuC0PDwaqLSp6c6eTG2SmEVmO+ZUNWn9jUHdKZ/lFsRFrQZ+jnKmsx7z8
lsyIy1WVt18gAUKv5f9tzI0qdqRyEKyIEloPBbCtY9h1nF1Ct66esao6pS++hLIa
2SQ2R/tqLNYhRdU6zUSab+yb0IgdLfpbgJtoBkpSZcLyq+Sad/RSHcGtwyw/G6Vc
uWNbcmCD9KGQiW9CD174/4frNvakZ6b7e6ydL5vvvyjw2jYLVvbwcTK8DasLnZKV
fh8ksBZ5AgMBAAECggEASAULbLnI729hkDr27I3vQ6arPqN37qp5PUPHC6iRafvA
c9r2OpJ+Ilypc1LhRrO3hGHgT4BRQIkObxkOkGdORZULk7EeZkqC/HihLNRPWNn2
hu19WxdgrdIWFXqkzOwFfN6HljHpNwNO/W0Kb2DFW0gtvI4n8xkzoUMghKVHOq8X
PVa4BCqM9X3hXhCTXuXTP9ObJE3aQvb7VQwNOLYbr3BRgBwAUVc0vQyOk1ePgZO2
MzHzCJwa1/wL8By5paHnXL/fdu3z00jpup/mtRV8wSnQZm7j3MfD2FOQOwJbThEd
w2hjddJZ0x+z418sljiYQd6KsT6BoDGD7MlHCVviAQKBgQD1MBAIizfGq46OFdtF
wwj3tboEDHalvjLtOi/QmSpys1KcfPSOt4meq5IwyCTIp/Br8CjSSKuWJQY7FJbE
AsSVOWB9vYXhnwVQgQHq2NPeZEJGqu9S3InYbJPuMy3o77AaMVAvtUewMzmVSYJx
UjYNrefJc94QRandZRAjuiuvCQKBgQDxbmiw/u5blXARlg9vGKAWzst3IBKQaY2j
neW/to7nz4jLBOthvIKhnZR+xoAeDs9kscZf/c2+G+3asMYXyKs7ZRo4qn14XJqb
pisjXX5UFnvnnGr5ySg1OjRpBmnLu0iVaWv3VbKl/IPiLQxrNWBXPonbD/v/UsfC
p7XsVUKX8QKBgBAHAEVOtGqsNDldfGPnB+MJYgt5tRfIgxO2xgFgwcGVr0TDdkkN
/lT86iV+L8leEP09Sa3VSkIaUXnzMpfFhowqoAAYL3Q8LODCThnH6rGS5DIyYkqM
WAZpspHTjqC3ak+MAa3cr7742j7D+17k/NuQDqLAjDeMFjp+rLtpJAnhAoGBANUC
kr/GzMpk+LGrcgaU9XnqDj4WQArF9j+rai9RhJgl1Q06U+qxhZfODlwkCpl6e6Td
7KZ4qXPX9G2EleIaHGmU9COW2Ii/O3GklF7peDH8fGmG6iNkRWNg7SjUjbdAj/Oz
RZy9MZedSUbedByKxWt0M/DhE3bbtH+btLjFKLIhAoGATs5gNFZsDnUIkaDLs5oG
KvZYmGchQ94QkNTmMqqF9subinG6irUKiEFg9HYCKn5htAndDKBXM7fCQB6UbEiJ
H4aFMLVOHrpr/+WdVRoyxGblpb0EacR0fzrrut1vxLFRKepTmWUASH39R29D82hp
oVCE3Mu3MzaJKNIkgq4zPcs=
-----END PRIVATE KEY-----
